   1               		.file	"stk500boot.c"
   2               	__SREG__ = 0x3f
   3               	__SP_H__ = 0x3e
   4               	__SP_L__ = 0x3d
   5               	__CCP__  = 0x34
   6               	__tmp_reg__ = 0
   7               	__zero_reg__ = 1
  15               	.Ltext0:
  16               		.section	.init9,"ax",@progbits
  17               	.global	__jumpMain
  19               	__jumpMain:
  20               	.LFB6:
  21               	.LSM0:
  22               	/* prologue: naked */
  23               	/* frame size = 0 */
  24               	.LSM1:
  25               	/* #APP */
  26               	 ;  369 "stk500boot.c" 1
  27               		.set __stack, 8703
  28               	 ;  0 "" 2
  29               	.LSM2:
  30               	 ;  375 "stk500boot.c" 1
  31 0000 01E2      		ldi	16, 33
  32               	 ;  0 "" 2
  33               	.LSM3:
  34               	 ;  378 "stk500boot.c" 1
  35 0002 0EBF      		out 62,16
  36               	 ;  0 "" 2
  37               	.LSM4:
  38               	 ;  381 "stk500boot.c" 1
  39 0004 0FEF      		ldi	16, 255
  40               	 ;  0 "" 2
  41               	.LSM5:
  42               	 ;  384 "stk500boot.c" 1
  43 0006 0DBF      		out 61,16
  44               	 ;  0 "" 2
  45               	.LSM6:
  46               	 ;  388 "stk500boot.c" 1
  47 0008 1124      		clr __zero_reg__
  48               	 ;  0 "" 2
  49               	.LSM7:
  50               	 ;  389 "stk500boot.c" 1
  51 000a 1FBE      		out 63, __zero_reg__
  52               	 ;  0 "" 2
  53               	.LSM8:
  54               	 ;  391 "stk500boot.c" 1
  55 000c 0C94 0000 		jmp main
  56               	 ;  0 "" 2
  57               	/* epilogue start */
  58               	.LSM9:
  59               	/* #NOAPP */
  60               	.LFE6:
  62               		.text
  63               	.global	delay_ms
  65               	delay_ms:
  66               	.LFB7:
  67               	.LM1:
  68               	.LVL0:
  69               	/* prologue: function */
  70               	/* frame size = 0 */
  71               	.LM2:
  72 0000 20E0      		ldi r18,lo8(0)
  73 0002 30E0      		ldi r19,hi8(0)
  74               	.LVL1:
  75               	.LBB286:
  76               	.LBB287:
  77               	.LBB288:
  78               	.LBB289:
  79               	.LM3:
  80 0004 40ED      		ldi r20,lo8(2000)
  81 0006 57E0      		ldi r21,hi8(2000)
  82 0008 00C0      		rjmp .L4
  83               	.LVL2:
  84               	.L5:
  85 000a FA01      		movw r30,r20
  86               	/* #APP */
  87               	 ;  105 "/usr/local/CrossPack-AVR-20100115/lib/gcc/avr/4.3.3/../../../../avr/include/util/delay_bas
  88 000c 3197      		1: sbiw r30,1
  89 000e 01F4      		brne 1b
  90               	 ;  0 "" 2
  91               	/* #NOAPP */
  92               	.LBE289:
  93               	.LBE288:
  94               	.LBE287:
  95               	.LBE286:
  96               	.LM4:
  97 0010 2F5F      		subi r18,lo8(-(1))
  98 0012 3F4F      		sbci r19,hi8(-(1))
  99               	.L4:
 100 0014 2817      		cp r18,r24
 101 0016 3907      		cpc r19,r25
 102 0018 00F0      		brlo .L5
 103               	/* epilogue start */
 104               	.LM5:
 105 001a 0895      		ret
 106               	.LFE7:
 108               	.global	PrintFromPROGMEM
 110               	PrintFromPROGMEM:
 111               	.LFB15:
 112               	.LM6:
 113               	.LVL3:
 114               	/* prologue: function */
 115               	/* frame size = 0 */
 116               	.LBB290:
 117               	.LM7:
 118 001c 9C01      		movw r18,r24
 119 001e 4427      		clr r20
 120 0020 37FD      		sbrc r19,7
 121 0022 4095      		com r20
 122 0024 542F      		mov r21,r20
 123               	.LVL4:
 124               	.L10:
 125 0026 DA01      		movw r26,r20
 126 0028 C901      		movw r24,r18
 127 002a 860F      		add r24,r22
 128 002c 911D      		adc r25,__zero_reg__
 129 002e A11D      		adc r26,__zero_reg__
 130 0030 B11D      		adc r27,__zero_reg__
 131               	/* #APP */
 132               	 ;  1199 "stk500boot.c" 1
 133 0032 ABBF      		out 59, r26
 134 0034 FC01      		movw r30, r24
 135 0036 8791      		elpm r24, Z+
 136               		
 137               	 ;  0 "" 2
 138               	.LVL5:
 139               	/* #NOAPP */
 140               	.LBE290:
 141               	.LM8:
 142 0038 8823      		tst r24
 143 003a 01F0      		breq .L11
 144               	.LBB291:
 145               	.LBB292:
 146               	.LM9:
 147 003c 8093 C600 		sts 198,r24
 148               	.L9:
 149               	.LM10:
 150 0040 8091 C000 		lds r24,192
 151               	.LVL6:
 152 0044 86FF      		sbrs r24,6
 153 0046 00C0      		rjmp .L9
 154               	.LM11:
 155 0048 8091 C000 		lds r24,192
 156 004c 8064      		ori r24,lo8(64)
 157 004e 8093 C000 		sts 192,r24
 158               	.LBE292:
 159               	.LBE291:
 160               	.LM12:
 161 0052 6F5F      		subi r22,lo8(-(1))
 162               	.LVL7:
 163 0054 00C0      		rjmp .L10
 164               	.LVL8:
 165               	.L11:
 166 0056 0895      		ret
 167               	.LFE15:
 169               	.global	PrintNewLine
 171               	PrintNewLine:
 172               	.LFB16:
 173               	.LM13:
 174               	/* prologue: function */
 175               	/* frame size = 0 */
 176               	.LBB293:
 177               	.LBB294:
 178               	.LM14:
 179 0058 8DE0      		ldi r24,lo8(13)
 180 005a 8093 C600 		sts 198,r24
 181               	.L14:
 182               	.LM15:
 183 005e 8091 C000 		lds r24,192
 184 0062 86FF      		sbrs r24,6
 185 0064 00C0      		rjmp .L14
 186               	.LM16:
 187 0066 8091 C000 		lds r24,192
 188 006a 8064      		ori r24,lo8(64)
 189 006c 8093 C000 		sts 192,r24
 190               	.LBE294:
 191               	.LBE293:
 192               	.LBB295:
 193               	.LBB296:
 194               	.LM17:
 195 0070 8AE0      		ldi r24,lo8(10)
 196 0072 8093 C600 		sts 198,r24
 197               	.L15:
 198               	.LM18:
 199 0076 8091 C000 		lds r24,192
 200 007a 86FF      		sbrs r24,6
 201 007c 00C0      		rjmp .L15
 202               	.LM19:
 203 007e 8091 C000 		lds r24,192
 204 0082 8064      		ori r24,lo8(64)
 205 0084 8093 C000 		sts 192,r24
 206               	/* epilogue start */
 207               	.LBE296:
 208               	.LBE295:
 209               	.LM20:
 210 0088 0895      		ret
 211               	.LFE16:
 213               	.global	PrintFromPROGMEMln
 215               	PrintFromPROGMEMln:
 216               	.LFB17:
 217               	.LM21:
 218               	.LVL9:
 219               	/* prologue: function */
 220               	/* frame size = 0 */
 221               	.LM22:
 222 008a 0E94 0000 		call PrintFromPROGMEM
 223               	.LVL10:
 224               	.LM23:
 225 008e 0E94 0000 		call PrintNewLine
 226               	/* epilogue start */
 227               	.LM24:
 228 0092 0895      		ret
 229               	.LFE17:
 231               	.global	PrintString
 233               	PrintString:
 234               	.LFB18:
 235               	.LM25:
 236               	.LVL11:
 237               	/* prologue: function */
 238               	/* frame size = 0 */
 239               	.LM26:
 240 0094 FC01      		movw r30,r24
 241               	.LVL12:
 242               	.L24:
 243               	.LM27:
 244 0096 9081      		ld r25,Z
 245               	.LM28:
 246 0098 9923      		tst r25
 247 009a 01F0      		breq .L22
 248               	.LBB297:
 249               	.LBB298:
 250               	.LM29:
 251 009c 9093 C600 		sts 198,r25
 252               	.L23:
 253               	.LM30:
 254 00a0 8091 C000 		lds r24,192
 255 00a4 86FF      		sbrs r24,6
 256 00a6 00C0      		rjmp .L23
 257               	.LM31:
 258 00a8 8091 C000 		lds r24,192
 259 00ac 8064      		ori r24,lo8(64)
 260 00ae 8093 C000 		sts 192,r24
 261               	.L22:
 262 00b2 3196      		adiw r30,1
 263               	.LBE298:
 264               	.LBE297:
 265               	.LM32:
 266 00b4 9923      		tst r25
 267 00b6 01F4      		brne .L24
 268               	/* epilogue start */
 269               	.LM33:
 270 00b8 0895      		ret
 271               	.LFE18:
 273               	.global	PrintHexByte
 275               	PrintHexByte:
 276               	.LFB19:
 277               	.LM34:
 278               	.LVL13:
 279               	/* prologue: function */
 280               	/* frame size = 0 */
 281 00ba 282F      		mov r18,r24
 282               	.LM35:
 283 00bc 982F      		mov r25,r24
 284 00be 9295      		swap r25
 285 00c0 9F70      		andi r25,lo8(15)
 286 00c2 892F      		mov r24,r25
 287               	.LVL14:
 288 00c4 805D      		subi r24,lo8(-(48))
 289               	.LM36:
 290 00c6 8A33      		cpi r24,lo8(58)
 291 00c8 00F0      		brlo .L29
 292               	.LM37:
 293 00ca 895F      		subi r24,lo8(-(7))
 294               	.L29:
 295               	.LBB299:
 296               	.LBB300:
 297               	.LM38:
 298 00cc 8093 C600 		sts 198,r24
 299               	.L30:
 300               	.LM39:
 301 00d0 8091 C000 		lds r24,192
 302               	.LVL15:
 303 00d4 86FF      		sbrs r24,6
 304 00d6 00C0      		rjmp .L30
 305               	.LM40:
 306 00d8 8091 C000 		lds r24,192
 307 00dc 8064      		ori r24,lo8(64)
 308 00de 8093 C000 		sts 192,r24
 309               	.LBE300:
 310               	.LBE299:
 311               	.LM41:
 312 00e2 822F      		mov r24,r18
 313 00e4 8F70      		andi r24,lo8(15)
 314 00e6 982F      		mov r25,r24
 315               	.LVL16:
 316 00e8 905D      		subi r25,lo8(-(48))
 317               	.LM42:
 318 00ea 9A33      		cpi r25,lo8(58)
 319 00ec 00F0      		brlo .L31
 320               	.LM43:
 321 00ee 995F      		subi r25,lo8(-(7))
 322               	.L31:
 323               	.LBB301:
 324               	.LBB302:
 325               	.LM44:
 326 00f0 9093 C600 		sts 198,r25
 327               	.L32:
 328               	.LM45:
 329 00f4 8091 C000 		lds r24,192
 330 00f8 86FF      		sbrs r24,6
 331 00fa 00C0      		rjmp .L32
 332               	.LM46:
 333 00fc 8091 C000 		lds r24,192
 334 0100 8064      		ori r24,lo8(64)
 335 0102 8093 C000 		sts 192,r24
 336               	/* epilogue start */
 337               	.LBE302:
 338               	.LBE301:
 339               	.LM47:
 340 0106 0895      		ret
 341               	.LFE19:
 343               	.global	PrintDecInt
 345               	PrintDecInt:
 346               	.LFB20:
 347               	.LM48:
 348               	.LVL17:
 349               	/* prologue: function */
 350               	/* frame size = 0 */
 351 0108 9C01      		movw r18,r24
 352 010a FB01      		movw r30,r22
 353               	.LM49:
 354 010c 8536      		cpi r24,101
 355 010e 9105      		cpc r25,__zero_reg__
 356 0110 04F4      		brge .L37
 357               	.LVL18:
 358 0112 6330      		cpi r22,3
 359 0114 7105      		cpc r23,__zero_reg__
 360 0116 04F0      		brlt .L38
 361               	.L37:
 362               	.LM50:
 363 0118 C901      		movw r24,r18
 364               	.LVL19:
 365 011a 64E6      		ldi r22,lo8(100)
 366 011c 70E0      		ldi r23,hi8(100)
 367 011e 0E94 0000 		call __divmodhi4
 368 0122 605D      		subi r22,lo8(-(48))
 369 0124 7F4F      		sbci r23,hi8(-(48))
 370               	.LBB303:
 371               	.LBB304:
 372               	.LM51:
 373 0126 6093 C600 		sts 198,r22
 374               	.L39:
 375               	.LM52:
 376 012a 8091 C000 		lds r24,192
 377 012e 86FF      		sbrs r24,6
 378 0130 00C0      		rjmp .L39
 379               	.LM53:
 380 0132 8091 C000 		lds r24,192
 381 0136 8064      		ori r24,lo8(64)
 382 0138 8093 C000 		sts 192,r24
 383               	.LVL20:
 384               	.L38:
 385               	.LBE304:
 386               	.LBE303:
 387               	.LM54:
 388 013c 2B30      		cpi r18,11
 389 013e 3105      		cpc r19,__zero_reg__
 390 0140 04F4      		brge .L40
 391 0142 3297      		sbiw r30,2
 392 0144 04F0      		brlt .L41
 393               	.L40:
 394               	.LM55:
 395 0146 C901      		movw r24,r18
 396 0148 64E6      		ldi r22,lo8(100)
 397 014a 70E0      		ldi r23,hi8(100)
 398 014c 0E94 0000 		call __divmodhi4
 399 0150 6AE0      		ldi r22,lo8(10)
 400 0152 70E0      		ldi r23,hi8(10)
 401 0154 0E94 0000 		call __divmodhi4
 402 0158 605D      		subi r22,lo8(-(48))
 403 015a 7F4F      		sbci r23,hi8(-(48))
 404               	.LBB305:
 405               	.LBB306:
 406               	.LM56:
 407 015c 6093 C600 		sts 198,r22
 408               	.L42:
 409               	.LM57:
 410 0160 8091 C000 		lds r24,192
 411 0164 86FF      		sbrs r24,6
 412 0166 00C0      		rjmp .L42
 413               	.LM58:
 414 0168 8091 C000 		lds r24,192
 415 016c 8064      		ori r24,lo8(64)
 416 016e 8093 C000 		sts 192,r24
 417               	.LVL21:
 418               	.L41:
 419               	.LBE306:
 420               	.LBE305:
 421               	.LM59:
 422 0172 C901      		movw r24,r18
 423 0174 6AE0      		ldi r22,lo8(10)
 424 0176 70E0      		ldi r23,hi8(10)
 425 0178 0E94 0000 		call __divmodhi4
 426 017c C096      		adiw r24,48
 427               	.LBB307:
 428               	.LBB308:
 429               	.LM60:
 430 017e 8093 C600 		sts 198,r24
 431               	.L43:
 432               	.LM61:
 433 0182 8091 C000 		lds r24,192
 434 0186 86FF      		sbrs r24,6
 435 0188 00C0      		rjmp .L43
 436               	.LM62:
 437 018a 8091 C000 		lds r24,192
 438 018e 8064      		ori r24,lo8(64)
 439 0190 8093 C000 		sts 192,r24
 440               	/* epilogue start */
 441               	.LBE308:
 442               	.LBE307:
 443               	.LM63:
 444 0194 0895      		ret
 445               	.LFE20:
 447               	.global	analogRead
 449               	analogRead:
 450               	.LFB22:
 451               	.LM64:
 452               	.LVL22:
 453               	/* prologue: function */
 454               	/* frame size = 0 */
 455               	.LM65:
 456 0196 282F      		mov r18,r24
 457 0198 2770      		andi r18,lo8(7)
 458 019a 2064      		ori r18,lo8(64)
 459 019c 2093 7C00 		sts 124,r18
 460               	.LM66:
 461 01a0 2091 7B00 		lds r18,123
 462 01a4 8695      		lsr r24
 463 01a6 8695      		lsr r24
 464 01a8 8695      		lsr r24
 465               	.LVL23:
 466 01aa 90E0      		ldi r25,lo8(0)
 467 01ac 8170      		andi r24,lo8(1)
 468 01ae 9070      		andi r25,hi8(1)
 469               	.LVL24:
 470 01b0 33E0      		ldi r19,3
 471 01b2 880F      	1:	lsl r24
 472 01b4 991F      		rol r25
 473 01b6 3A95      		dec r19
 474 01b8 01F4      		brne 1b
 475 01ba 277F      		andi r18,lo8(-9)
 476 01bc 282B      		or r18,r24
 477 01be 2093 7B00 		sts 123,r18
 478               	.LM67:
 479 01c2 8091 7A00 		lds r24,122
 480 01c6 8064      		ori r24,lo8(64)
 481 01c8 8093 7A00 		sts 122,r24
 482               	.L49:
 483               	.LM68:
 484 01cc 8091 7A00 		lds r24,122
 485 01d0 86FD      		sbrc r24,6
 486 01d2 00C0      		rjmp .L49
 487               	.LM69:
 488 01d4 2091 7800 		lds r18,120
 489               	.LVL25:
 490               	.LM70:
 491 01d8 4091 7900 		lds r20,121
 492               	.LVL26:
 493 01dc 942F      		mov r25,r20
 494               	.LVL27:
 495 01de 80E0      		ldi r24,lo8(0)
 496               	.LVL28:
 497 01e0 30E0      		ldi r19,lo8(0)
 498 01e2 282B      		or r18,r24
 499 01e4 392B      		or r19,r25
 500               	.LVL29:
 501               	.LM71:
 502 01e6 C901      		movw r24,r18
 503               	.LVL30:
 504               	/* epilogue start */
 505 01e8 0895      		ret
 506               	.LFE22:
 509               	PrintAvailablePort:
 510               	.LFB27:
 511               	.LM72:
 512               	.LVL31:
 513 01ea 1F93      		push r17
 514               	/* prologue: function */
 515               	/* frame size = 0 */
 516 01ec 182F      		mov r17,r24
 517               	.LM73:
 518 01ee 80E0      		ldi r24,lo8(gTextMsg_PORT)
 519 01f0 90E0      		ldi r25,hi8(gTextMsg_PORT)
 520               	.LVL32:
 521 01f2 60E0      		ldi r22,lo8(0)
 522 01f4 0E94 0000 		call PrintFromPROGMEM
 523               	.LBB309:
 524               	.LBB310:
 525               	.LM74:
 526 01f8 1093 C600 		sts 198,r17
 527               	.L53:
 528               	.LM75:
 529 01fc 8091 C000 		lds r24,192
 530 0200 86FF      		sbrs r24,6
 531 0202 00C0      		rjmp .L53
 532               	.LM76:
 533 0204 8091 C000 		lds r24,192
 534 0208 8064      		ori r24,lo8(64)
 535 020a 8093 C000 		sts 192,r24
 536               	.LBE310:
 537               	.LBE309:
 538               	.LM77:
 539 020e 0E94 0000 		call PrintNewLine
 540               	/* epilogue start */
 541               	.LM78:
 542 0212 1F91      		pop r17
 543               	.LVL33:
 544 0214 0895      		ret
 545               	.LFE27:
 548               	DumpHex:
 549               	.LFB24:
 550               	.LM79:
 551               	.LVL34:
 552 0216 2F92      		push r2
 553 0218 3F92      		push r3
 554 021a 4F92      		push r4
 555 021c 5F92      		push r5
 556 021e 6F92      		push r6
 557 0220 7F92      		push r7
 558 0222 8F92      		push r8
 559 0224 9F92      		push r9
 560 0226 AF92      		push r10
 561 0228 BF92      		push r11
 562 022a CF92      		push r12
 563 022c DF92      		push r13
 564 022e EF92      		push r14
 565 0230 FF92      		push r15
 566 0232 0F93      		push r16
 567 0234 1F93      		push r17
 568 0236 DF93      		push r29
 569 0238 CF93      		push r28
 570 023a CDB7      		in r28,__SP_L__
 571 023c DEB7      		in r29,__SP_H__
 572 023e 6297      		sbiw r28,18
 573 0240 0FB6      		in __tmp_reg__,__SREG__
 574 0242 F894      		cli
 575 0244 DEBF      		out __SP_H__,r29
 576 0246 0FBE      		out __SREG__,__tmp_reg__
 577 0248 CDBF      		out __SP_L__,r28
 578               	/* prologue: function */
 579               	/* frame size = 18 */
 580 024a 382E      		mov r3,r24
 581 024c 622E      		mov r6,r18
 582               	.LM80:
 583 024e CA01      		movw r24,r20
 584               	.LVL35:
 585 0250 DB01      		movw r26,r22
 586 0252 5C01      		movw r10,r24
 587 0254 6D01      		movw r12,r26
 588               	.LVL36:
 589 0256 7724      		clr r7
 590               	.LVL37:
 591               	.LBB311:
 592               	.LBB312:
 593               	.LM81:
 594 0258 60E2      		ldi r22,lo8(32)
 595 025a 262E      		mov r2,r22
 596 025c 2E01      		movw r4,r28
 597 025e 0894      		sec
 598 0260 411C      		adc r4,__zero_reg__
 599 0262 511C      		adc r5,__zero_reg__
 600 0264 00C0      		rjmp .L57
 601               	.LVL38:
 602               	.L70:
 603               	.LBE312:
 604               	.LBE311:
 605               	.LM82:
 606 0266 81E0      		ldi r24,lo8(65537)
 607 0268 A816      		cp r10,r24
 608 026a 80E0      		ldi r24,hi8(65537)
 609 026c B806      		cpc r11,r24
 610 026e 81E0      		ldi r24,hlo8(65537)
 611 0270 C806      		cpc r12,r24
 612 0272 80E0      		ldi r24,hhi8(65537)
 613 0274 D806      		cpc r13,r24
 614 0276 00F0      		brlo .L58
 615               	.LM83:
 616 0278 C601      		movw r24,r12
 617 027a AA27      		clr r26
 618 027c BB27      		clr r27
 619 027e 0E94 0000 		call PrintHexByte
 620               	.LVL39:
 621               	.L58:
 622               	.LM84:
 623 0282 BB27      		clr r27
 624 0284 AD2D      		mov r26,r13
 625 0286 9C2D      		mov r25,r12
 626 0288 8B2D      		mov r24,r11
 627 028a 0E94 0000 		call PrintHexByte
 628               	.LM85:
 629 028e 8A2D      		mov r24,r10
 630 0290 0E94 0000 		call PrintHexByte
 631               	.LBB314:
 632               	.LBB313:
 633               	.LM86:
 634 0294 2092 C600 		sts 198,r2
 635               	.L59:
 636               	.LM87:
 637 0298 8091 C000 		lds r24,192
 638 029c 86FF      		sbrs r24,6
 639 029e 00C0      		rjmp .L59
 640               	.LM88:
 641 02a0 8091 C000 		lds r24,192
 642 02a4 8064      		ori r24,lo8(64)
 643 02a6 8093 C000 		sts 192,r24
 644               	.LBE313:
 645               	.LBE314:
 646               	.LBB315:
 647               	.LBB316:
 648               	.LM89:
 649 02aa 9DE2      		ldi r25,lo8(45)
 650 02ac 9093 C600 		sts 198,r25
 651               	.L60:
 652               	.LM90:
 653 02b0 8091 C000 		lds r24,192
 654 02b4 86FF      		sbrs r24,6
 655 02b6 00C0      		rjmp .L60
 656               	.LM91:
 657 02b8 8091 C000 		lds r24,192
 658 02bc 8064      		ori r24,lo8(64)
 659 02be 8093 C000 		sts 192,r24
 660               	.LBE316:
 661               	.LBE315:
 662               	.LBB317:
 663               	.LBB318:
 664               	.LM92:
 665 02c2 2092 C600 		sts 198,r2
 666               	.L61:
 667               	.LM93:
 668 02c6 8091 C000 		lds r24,192
 669 02ca 86FF      		sbrs r24,6
 670 02cc 00C0      		rjmp .L61
 671               	.LM94:
 672 02ce 8091 C000 		lds r24,192
 673 02d2 8064      		ori r24,lo8(64)
 674 02d4 8093 C000 		sts 192,r24
 675               	.LBE318:
 676               	.LBE317:
 677               	.LM95:
 678 02d8 1982      		std Y+1,__zero_reg__
 679 02da 8601      		movw r16,r12
 680 02dc 7501      		movw r14,r10
 681 02de 8824      		clr r8
 682 02e0 9924      		clr r9
 683               	.LVL40:
 684               	.L69:
 685               	.LM96:
 686 02e2 A1E0      		ldi r26,lo8(1)
 687 02e4 3A16      		cp r3,r26
 688 02e6 01F0      		breq .L64
 689 02e8 3A16      		cp r3,r26
 690 02ea 00F0      		brlo .L63
 691 02ec B2E0      		ldi r27,lo8(2)
 692 02ee 3B16      		cp r3,r27
 693 02f0 01F4      		brne .L62
 694 02f2 00C0      		rjmp .L77
 695               	.L63:
 696               	.LBB319:
 697               	.LM97:
 698               	/* #APP */
 699               	 ;  1449 "stk500boot.c" 1
 700 02f4 0BBF      		out 59, r16
 701 02f6 F701      		movw r30, r14
 702 02f8 7790      		elpm r7, Z+
 703               		
 704               	 ;  0 "" 2
 705               	/* #NOAPP */
 706 02fa 00C0      		rjmp .L62
 707               	.L64:
 708               	.LBE319:
 709               	.LM98:
 710 02fc C701      		movw r24,r14
 711 02fe 0E94 0000 		call __eerd_byte_m2560
 712 0302 782E      		mov r7,r24
 713 0304 00C0      		rjmp .L62
 714               	.L77:
 715               	.LM99:
 716 0306 F701      		movw r30,r14
 717               	.LVL41:
 718 0308 7080      		ld r7,Z
 719               	.LVL42:
 720               	.L62:
 721               	.LM100:
 722 030a 872D      		mov r24,r7
 723 030c 0E94 0000 		call PrintHexByte
 724               	.LBB320:
 725               	.LBB321:
 726               	.LM101:
 727 0310 2092 C600 		sts 198,r2
 728               	.L66:
 729               	.LM102:
 730 0314 8091 C000 		lds r24,192
 731 0318 86FF      		sbrs r24,6
 732 031a 00C0      		rjmp .L66
 733               	.LM103:
 734 031c 8091 C000 		lds r24,192
 735 0320 8064      		ori r24,lo8(64)
 736 0322 8093 C000 		sts 192,r24
 737               	.LBE321:
 738               	.LBE320:
 739               	.LM104:
 740 0326 872D      		mov r24,r7
 741 0328 8052      		subi r24,lo8(-(-32))
 742 032a F401      		movw r30,r8
 743 032c EF70      		andi r30,lo8(15)
 744 032e F070      		andi r31,hi8(15)
 745 0330 8F35      		cpi r24,lo8(95)
 746 0332 00F4      		brsh .L67
 747               	.LM105:
 748 0334 E40D      		add r30,r4
 749 0336 F51D      		adc r31,r5
 750 0338 7082      		st Z,r7
 751 033a 00C0      		rjmp .L68
 752               	.L67:
 753               	.LM106:
 754 033c E40D      		add r30,r4
 755 033e F51D      		adc r31,r5
 756 0340 8EE2      		ldi r24,lo8(46)
 757 0342 8083      		st Z,r24
 758               	.L68:
 759               	.LM107:
 760 0344 0894      		sec
 761 0346 E11C      		adc r14,__zero_reg__
 762 0348 F11C      		adc r15,__zero_reg__
 763 034a 011D      		adc r16,__zero_reg__
 764 034c 111D      		adc r17,__zero_reg__
 765               	.LVL43:
 766 034e 0894      		sec
 767 0350 811C      		adc r8,__zero_reg__
 768 0352 911C      		adc r9,__zero_reg__
 769               	.LM108:
 770 0354 90E1      		ldi r25,lo8(16)
 771 0356 8916      		cp r8,r25
 772 0358 9104      		cpc r9,__zero_reg__
 773 035a 01F0      		breq .+2
 774 035c 00C0      		rjmp .L69
 775 035e 80E1      		ldi r24,lo8(16)
 776 0360 90E0      		ldi r25,hi8(16)
 777 0362 A0E0      		ldi r26,hlo8(16)
 778 0364 B0E0      		ldi r27,hhi8(16)
 779 0366 A80E      		add r10,r24
 780 0368 B91E      		adc r11,r25
 781 036a CA1E      		adc r12,r26
 782 036c DB1E      		adc r13,r27
 783               	.LVL44:
 784               	.LM109:
 785 036e 198A      		std Y+17,__zero_reg__
 786               	.LM110:
 787 0370 C201      		movw r24,r4
 788 0372 0E94 0000 		call PrintString
 789               	.LM111:
 790 0376 0E94 0000 		call PrintNewLine
 791               	.LM112:
 792 037a 6A94      		dec r6
 793               	.LVL45:
 794               	.L57:
 795               	.LM113:
 796 037c 6620      		tst r6
 797 037e 01F0      		breq .+2
 798 0380 00C0      		rjmp .L70
 799               	/* epilogue start */
 800               	.LM114:
 801 0382 6296      		adiw r28,18
 802 0384 0FB6      		in __tmp_reg__,__SREG__
 803 0386 F894      		cli
 804 0388 DEBF      		out __SP_H__,r29
 805 038a 0FBE      		out __SREG__,__tmp_reg__
 806 038c CDBF      		out __SP_L__,r28
 807 038e CF91      		pop r28
 808 0390 DF91      		pop r29
 809 0392 1F91      		pop r17
 810 0394 0F91      		pop r16
 811 0396 FF90      		pop r15
 812 0398 EF90      		pop r14
 813 039a DF90      		pop r13
 814 039c CF90      		pop r12
 815 039e BF90      		pop r11
 816 03a0 AF90      		pop r10
 817               	.LVL46:
 818 03a2 9F90      		pop r9
 819 03a4 8F90      		pop r8
 820 03a6 7F90      		pop r7
 821               	.LVL47:
 822 03a8 6F90      		pop r6
 823               	.LVL48:
 824 03aa 5F90      		pop r5
 825 03ac 4F90      		pop r4
 826 03ae 3F90      		pop r3
 827               	.LVL49:
 828 03b0 2F90      		pop r2
 829 03b2 0895      		ret
 830               	.LFE24:
 832               	.global	main
 834               	main:
 835               	.LFB12:
 836               	.LM115:
 837 03b4 2F92      		push r2
 838 03b6 3F92      		push r3
 839 03b8 4F92      		push r4
 840 03ba 5F92      		push r5
 841 03bc 6F92      		push r6
 842 03be 7F92      		push r7
 843 03c0 8F92      		push r8
 844 03c2 9F92      		push r9
 845 03c4 AF92      		push r10
 846 03c6 BF92      		push r11
 847 03c8 CF92      		push r12
 848 03ca DF92      		push r13
 849 03cc EF92      		push r14
 850 03ce FF92      		push r15
 851 03d0 0F93      		push r16
 852 03d2 1F93      		push r17
 853 03d4 DF93      		push r29
 854 03d6 CF93      		push r28
 855 03d8 CDB7      		in r28,__SP_L__
 856 03da DEB7      		in r29,__SP_H__
 857 03dc CD53      		subi r28,lo8(-(-317))
 858 03de D140      		sbci r29,hi8(-(-317))
 859 03e0 0FB6      		in __tmp_reg__,__SREG__
 860 03e2 F894      		cli
 861 03e4 DEBF      		out __SP_H__,r29
 862 03e6 0FBE      		out __SREG__,__tmp_reg__
 863 03e8 CDBF      		out __SP_L__,r28
 864               	/* prologue: function */
 865               	/* frame size = 317 */
 866               	.LM116:
 867 03ea 279A      		sbi 36-32,7
 868               	.LM117:
 869 03ec 2F9A      		sbi 37-32,7
 870               	.LM118:
 871 03ee 8091 C000 		lds r24,192
 872 03f2 8260      		ori r24,lo8(2)
 873 03f4 8093 C000 		sts 192,r24
 874               	.LM119:
 875 03f8 80E1      		ldi r24,lo8(16)
 876 03fa 8093 C400 		sts 196,r24
 877               	.LM120:
 878 03fe 88E1      		ldi r24,lo8(24)
 879 0400 8093 C100 		sts 193,r24
 880               	.LM121:
 881               	/* #APP */
 882               	 ;  534 "stk500boot.c" 1
 883 0404 0000      		nop
 884               	 ;  0 "" 2
 885               	/* #NOAPP */
 886 0406 EE24      		clr r14
 887 0408 FF24      		clr r15
 888 040a 8701      		movw r16,r14
 889               	.LVL50:
 890               	.LBB561:
 891               	.LBB562:
 892               	.LBB563:
 893               	.LBB564:
 894               	.LM122:
 895 040c 84E0      		ldi r24,lo8(4)
 896 040e A82E      		mov r10,r24
 897 0410 B12C      		mov r11,__zero_reg__
 898               	.LBE564:
 899               	.LBE563:
 900               	.LBE562:
 901               	.LBE561:
 902               	.LM123:
 903 0412 CC24      		clr r12
 904 0414 DD24      		clr r13
 905               	.LVL51:
 906 0416 00C0      		rjmp .L342
 907               	.L83:
 908               	.LBB568:
 909               	.LBB567:
 910               	.LBB566:
 911               	.LBB565:
 912               	.LM124:
 913 0418 C501      		movw r24,r10
 914               	.LVL52:
 915               	/* #APP */
 916               	 ;  105 "/usr/local/CrossPack-AVR-20100115/lib/gcc/avr/4.3.3/../../../../avr/include/util/delay_bas
 917 041a 0197      		1: sbiw r24,1
 918 041c 01F4      		brne 1b
 919               	 ;  0 "" 2
 920               	/* #NOAPP */
 921               	.LBE565:
 922               	.LBE566:
 923               	.LBE567:
 924               	.LBE568:
 925               	.LM125:
 926 041e 0894      		sec
 927 0420 E11C      		adc r14,__zero_reg__
 928 0422 F11C      		adc r15,__zero_reg__
 929 0424 011D      		adc r16,__zero_reg__
 930 0426 111D      		adc r17,__zero_reg__
 931 0428 21E9      		ldi r18,lo8(90001)
 932 042a E216      		cp r14,r18
 933 042c 2FE5      		ldi r18,hi8(90001)
 934 042e F206      		cpc r15,r18
 935 0430 21E0      		ldi r18,hlo8(90001)
 936 0432 0207      		cpc r16,r18
 937 0434 20E0      		ldi r18,hhi8(90001)
 938 0436 1207      		cpc r17,r18
 939 0438 00F0      		brlo .L80
 940 043a B1E0      		ldi r27,lo8(1)
 941 043c CB2E      		mov r12,r27
 942 043e D12C      		mov r13,__zero_reg__
 943               	.L80:
 944               	.LM126:
 945 0440 C801      		movw r24,r16
 946 0442 B701      		movw r22,r14
 947 0444 28E5      		ldi r18,lo8(7000)
 948 0446 3BE1      		ldi r19,hi8(7000)
 949 0448 40E0      		ldi r20,hlo8(7000)
 950 044a 50E0      		ldi r21,hhi8(7000)
 951 044c 0E94 0000 		call __udivmodsi4
 952 0450 6115      		cp r22,__zero_reg__
 953 0452 7105      		cpc r23,__zero_reg__
 954 0454 8105      		cpc r24,__zero_reg__
 955 0456 9105      		cpc r25,__zero_reg__
 956 0458 01F4      		brne .L342
 957               	.LM127:
 958 045a 85B1      		in r24,37-32
 959               	.LVL53:
 960 045c 8058      		subi r24,lo8(-(-128))
 961 045e 85B9      		out 37-32,r24
 962               	.LVL54:
 963               	.L342:
 964               	.LBB569:
 965               	.LBB570:
 966               	.LM128:
 967 0460 8091 C000 		lds r24,192
 968               	.LVL55:
 969               	.LBE570:
 970               	.LBE569:
 971               	.LM129:
 972 0464 87FD      		sbrc r24,7
 973 0466 00C0      		rjmp .L82
 974 0468 C114      		cp r12,__zero_reg__
 975 046a D104      		cpc r13,__zero_reg__
 976 046c 01F0      		breq .L83
 977               	.L82:
 978               	.LM130:
 979 046e A601      		movw r20,r12
 980 0470 4F5F      		subi r20,lo8(-(1))
 981 0472 5F4F      		sbci r21,hi8(-(1))
 982 0474 C25E      		subi r28,lo8(-286)
 983 0476 DE4F      		sbci r29,hi8(-286)
 984 0478 5983      		std Y+1,r21
 985 047a 4883      		st Y,r20
 986 047c CE51      		subi r28,lo8(286)
 987 047e D140      		sbci r29,hi8(286)
 988               	.LVL56:
 989               	.LM131:
 990 0480 C25E      		subi r28,lo8(-286)
 991 0482 DE4F      		sbci r29,hi8(-286)
 992 0484 6881      		ld r22,Y
 993 0486 7981      		ldd r23,Y+1
 994 0488 CE51      		subi r28,lo8(286)
 995 048a D140      		sbci r29,hi8(286)
 996 048c 6130      		cpi r22,1
 997 048e 7105      		cpc r23,__zero_reg__
 998 0490 01F0      		breq .+4
 999 0492 0C94 0000 		jmp .L85
 1000 0496 C05D      		subi r28,lo8(-304)
 1001 0498 DE4F      		sbci r29,hi8(-304)
 1002 049a 1982      		std Y+1,__zero_reg__
 1003 049c 1882      		st Y,__zero_reg__
 1004 049e C053      		subi r28,lo8(304)
 1005 04a0 D140      		sbci r29,hi8(304)
 1006               	.LVL57:
 1007 04a2 60E0      		ldi r22,lo8(0)
 1008               	.LVL58:
 1009 04a4 C15D      		subi r28,lo8(-303)
 1010 04a6 DE4F      		sbci r29,hi8(-303)
 1011 04a8 1882      		st Y,__zero_reg__
 1012 04aa CF52      		subi r28,lo8(303)
 1013 04ac D140      		sbci r29,hi8(303)
 1014               	.LVL59:
 1015 04ae AA24      		clr r10
 1016 04b0 BB24      		clr r11
 1017               	.LVL60:
 1018 04b2 C05E      		subi r28,lo8(-288)
 1019 04b4 DE4F      		sbci r29,hi8(-288)
 1020 04b6 1882      		st Y,__zero_reg__
 1021 04b8 1982      		std Y+1,__zero_reg__
 1022 04ba 1A82      		std Y+2,__zero_reg__
 1023 04bc 1B82      		std Y+3,__zero_reg__
 1024 04be C052      		subi r28,lo8(288)
 1025 04c0 D140      		sbci r29,hi8(288)
 1026               	.LVL61:
 1027 04c2 CE5C      		subi r28,lo8(-306)
 1028 04c4 DE4F      		sbci r29,hi8(-306)
 1029 04c6 1882      		st Y,__zero_reg__
 1030 04c8 1982      		std Y+1,__zero_reg__
 1031 04ca 1A82      		std Y+2,__zero_reg__
 1032 04cc 1B82      		std Y+3,__zero_reg__
 1033 04ce C253      		subi r28,lo8(306)
 1034 04d0 D140      		sbci r29,hi8(306)
 1035               	.LVL62:
 1036               	.LBB571:
 1037               	.LBB572:
 1038               	.LBB573:
 1039               	.LBB574:
 1040               	.LM132:
 1041 04d2 80E0      		ldi r24,lo8(0)
 1042 04d4 90E0      		ldi r25,hi8(0)
 1043 04d6 A0E0      		ldi r26,hlo8(0)
 1044 04d8 B0E0      		ldi r27,hhi8(0)
 1045               	/* #APP */
 1046               	 ;  452 "stk500boot.c" 1
 1047 04da ABBF      		out 59, r26
 1048 04dc FC01      		movw r30, r24
 1049 04de A791      		elpm r26, Z+
 1050 04e0 B691      		elpm r27, Z
 1051               		
 1052               	 ;  0 "" 2
 1053               	/* #NOAPP */
 1054 04e2 C45C      		subi r28,lo8(-316)
 1055 04e4 DE4F      		sbci r29,hi8(-316)
 1056 04e6 B983      		std Y+1,r27
 1057 04e8 A883      		st Y,r26
 1058 04ea CC53      		subi r28,lo8(316)
 1059 04ec D140      		sbci r29,hi8(316)
 1060 04ee 0C94 0000 		jmp .L86
 1061               	.LVL63:
 1062               	.L345:
 1063               	.LBE574:
 1064               	.LBE573:
 1065               	.LBE572:
 1066               	.LBE571:
 1067               	.LM133:
 1068 04f2 C25E      		subi r28,lo8(-286)
 1069 04f4 DE4F      		sbci r29,hi8(-286)
 1070 04f6 E881      		ld r30,Y
 1071 04f8 F981      		ldd r31,Y+1
 1072 04fa CE51      		subi r28,lo8(286)
 1073 04fc D140      		sbci r29,hi8(286)
 1074               	.LVL64:
 1075 04fe 3197      		sbiw r30,1
 1076 0500 01F4      		brne .L349
 1077               	.L87:
 1078               	.LM134:
 1079 0502 2091 C600 		lds r18,198
 1080 0506 C25E      		subi r28,lo8(-286)
 1081 0508 DE4F      		sbci r29,hi8(-286)
 1082 050a 1982      		std Y+1,__zero_reg__
 1083 050c 1882      		st Y,__zero_reg__
 1084 050e CE51      		subi r28,lo8(286)
 1085 0510 D140      		sbci r29,hi8(286)
 1086               	.LVL65:
 1087 0512 00C0      		rjmp .L89
 1088               	.LVL66:
 1089               	.L91:
 1090               	.LBB577:
 1091               	.LBB576:
 1092               	.LM135:
 1093 0514 2F5F      		subi r18,lo8(-(1))
 1094 0516 3F4F      		sbci r19,hi8(-(1))
 1095 0518 4F4F      		sbci r20,hlo8(-(1))
 1096 051a 5F4F      		sbci r21,hhi8(-(1))
 1097               	.LM136:
 1098 051c 2130      		cpi r18,lo8(8000001)
 1099 051e F2E1      		ldi r31,hi8(8000001)
 1100 0520 3F07      		cpc r19,r31
 1101 0522 FAE7      		ldi r31,hlo8(8000001)
 1102 0524 4F07      		cpc r20,r31
 1103 0526 F0E0      		ldi r31,hhi8(8000001)
 1104 0528 5F07      		cpc r21,r31
 1105 052a 00F0      		brlo .L343
 1106               	.LBB575:
 1107               	.LM137:
 1108 052c C45C      		subi r28,lo8(-316)
 1109 052e DE4F      		sbci r29,hi8(-316)
 1110 0530 0881      		ld r16,Y
 1111 0532 1981      		ldd r17,Y+1
 1112 0534 CC53      		subi r28,lo8(316)
 1113 0536 D140      		sbci r29,hi8(316)
 1114 0538 0F5F      		subi r16,lo8(-1)
 1115 053a 1F4F      		sbci r17,hi8(-1)
 1116               	.LVL67:
 1117 053c 01F0      		breq .L349
 1118               	.L90:
 1119               	.LM138:
 1120               	/* #APP */
 1121               	 ;  458 "stk500boot.c" 1
 1122 053e EE27      		clr	r30		
 1123 0540 FF27      		clr	r31		
 1124 0542 0994      		ijmp	
 1125               		
 1126               	 ;  0 "" 2
 1127               	.LVL68:
 1128               	/* #NOAPP */
 1129               	.L349:
 1130 0544 20E0      		ldi r18,lo8(0)
 1131 0546 30E0      		ldi r19,hi8(0)
 1132 0548 40E0      		ldi r20,hlo8(0)
 1133 054a 50E0      		ldi r21,hhi8(0)
 1134               	.LVL69:
 1135               	.L343:
 1136               	.LBE575:
 1137               	.LM139:
 1138 054c 8091 C000 		lds r24,192
 1139 0550 87FF      		sbrs r24,7
 1140 0552 00C0      		rjmp .L91
 1141               	.LM140:
 1142 0554 2091 C600 		lds r18,198
 1143               	.LVL70:
 1144               	.L89:
 1145               	.LBE576:
 1146               	.LBE577:
 1147               	.LM141:
 1148 0558 2132      		cpi r18,lo8(33)
 1149 055a 01F0      		breq .+2
 1150 055c 00C0      		rjmp .L92
 1151               	.LM142:
 1152 055e 0894      		sec
 1153 0560 A11C      		adc r10,__zero_reg__
 1154 0562 B11C      		adc r11,__zero_reg__
 1155               	.LM143:
 1156 0564 33E0      		ldi r19,lo8(3)
 1157 0566 A316      		cp r10,r19
 1158 0568 B104      		cpc r11,__zero_reg__
 1159               	.LVL71:
 1160 056a 01F0      		breq .+2
 1161 056c 00C0      		rjmp .L93
 1162 056e 00E0      		ldi r16,lo8(0)
 1163 0570 10E0      		ldi r17,hi8(0)
 1164               	.LVL72:
 1165 0572 00C0      		rjmp .L94
 1166               	.LVL73:
 1167               	.L96:
 1168               	.LBB578:
 1169               	.LBB579:
 1170               	.LBB580:
 1171               	.LBB581:
 1172               	.LM144:
 1173 0574 41E2      		ldi r20,lo8(33)
 1174 0576 4093 C600 		sts 198,r20
 1175               	.L95:
 1176               	.LM145:
 1177 057a 8091 C000 		lds r24,192
 1178 057e 86FF      		sbrs r24,6
 1179 0580 00C0      		rjmp .L95
 1180               	.LM146:
 1181 0582 8091 C000 		lds r24,192
 1182 0586 8064      		ori r24,lo8(64)
 1183 0588 8093 C000 		sts 192,r24
 1184               	.LBE581:
 1185               	.LBE580:
 1186               	.LM147:
 1187 058c 2F5F      		subi r18,lo8(-(1))
 1188 058e 3F4F      		sbci r19,hi8(-(1))
 1189 0590 2931      		cpi r18,25
 1190 0592 3105      		cpc r19,__zero_reg__
 1191 0594 01F4      		brne .L96
 1192               	.LM148:
 1193 0596 0E94 0000 		call PrintNewLine
 1194               	.LVL74:
 1195               	.LM149:
 1196 059a 0F5F      		subi r16,lo8(-(1))
 1197 059c 1F4F      		sbci r17,hi8(-(1))
 1198 059e 0530      		cpi r16,5
 1199 05a0 1105      		cpc r17,__zero_reg__
 1200 05a2 01F0      		breq .L97
 1201               	.LVL75:
 1202               	.L94:
 1203 05a4 20E0      		ldi r18,lo8(0)
 1204 05a6 30E0      		ldi r19,hi8(0)
 1205               	.LVL76:
 1206 05a8 00C0      		rjmp .L96
 1207               	.LVL77:
 1208               	.L97:
 1209               	.LM150:
 1210 05aa 1092 0000 		sts gRamIndex,__zero_reg__
 1211 05ae 1092 0000 		sts (gRamIndex)+1,__zero_reg__
 1212 05b2 1092 0000 		sts (gRamIndex)+2,__zero_reg__
 1213 05b6 1092 0000 		sts (gRamIndex)+3,__zero_reg__
 1214               	.LM151:
 1215 05ba 1092 0000 		sts gFlashIndex,__zero_reg__
 1216 05be 1092 0000 		sts (gFlashIndex)+1,__zero_reg__
 1217 05c2 1092 0000 		sts (gFlashIndex)+2,__zero_reg__
 1218 05c6 1092 0000 		sts (gFlashIndex)+3,__zero_reg__
 1219               	.LM152:
 1220 05ca 1092 0000 		sts gEepromIndex,__zero_reg__
 1221 05ce 1092 0000 		sts (gEepromIndex)+1,__zero_reg__
 1222 05d2 1092 0000 		sts (gEepromIndex)+2,__zero_reg__
 1223 05d6 1092 0000 		sts (gEepromIndex)+3,__zero_reg__
 1224               	.LM153:
 1225 05da 80E0      		ldi r24,lo8(gTextMsg_Explorer)
 1226 05dc 90E0      		ldi r25,hi8(gTextMsg_Explorer)
 1227               	.LVL78:
 1228               	.L350:
 1229 05de 60E0      		ldi r22,lo8(0)
 1230 05e0 0E94 0000 		call PrintFromPROGMEMln
 1231               	.LVL79:
 1232               	.L344:
 1233               	.LM154:
 1234 05e4 80E0      		ldi r24,lo8(gTextMsg_Prompt)
 1235 05e6 90E0      		ldi r25,hi8(gTextMsg_Prompt)
 1236 05e8 60E0      		ldi r22,lo8(0)
 1237 05ea 0E94 0000 		call PrintFromPROGMEM
 1238               	.LVL80:
 1239               	.L98:
 1240               	.LBB582:
 1241               	.LBB583:
 1242               	.LM155:
 1243 05ee 8091 C000 		lds r24,192
 1244 05f2 87FF      		sbrs r24,7
 1245 05f4 00C0      		rjmp .L98
 1246               	.LM156:
 1247 05f6 9091 C600 		lds r25,198
 1248               	.LVL81:
 1249               	.LBE583:
 1250               	.LBE582:
 1251               	.LM157:
 1252 05fa 9036      		cpi r25,lo8(96)
 1253 05fc 00F0      		brlo .L99
 1254               	.LM158:
 1255 05fe 9F75      		andi r25,lo8(95)
 1256               	.L99:
 1257               	.LM159:
 1258 0600 9032      		cpi r25,lo8(32)
 1259 0602 00F0      		brlo .L100
 1260               	.LBB584:
 1261               	.LBB585:
 1262               	.LM160:
 1263 0604 9093 C600 		sts 198,r25
 1264               	.L101:
 1265               	.LM161:
 1266 0608 8091 C000 		lds r24,192
 1267 060c 86FF      		sbrs r24,6
 1268 060e 00C0      		rjmp .L101
 1269               	.LM162:
 1270 0610 8091 C000 		lds r24,192
 1271 0614 8064      		ori r24,lo8(64)
 1272 0616 8093 C000 		sts 192,r24
 1273               	.LBE585:
 1274               	.LBE584:
 1275               	.LBB586:
 1276               	.LBB587:
 1277               	.LM163:
 1278 061a 80E2      		ldi r24,lo8(32)
 1279 061c 8093 C600 		sts 198,r24
 1280               	.L102:
 1281               	.LM164:
 1282 0620 8091 C000 		lds r24,192
 1283 0624 86FF      		sbrs r24,6
 1284 0626 00C0      		rjmp .L102
 1285               	.LM165:
 1286 0628 8091 C000 		lds r24,192
 1287 062c 8064      		ori r24,lo8(64)
 1288 062e 8093 C000 		sts 192,r24
 1289               	.L100:
 1290               	.LBE587:
 1291               	.LBE586:
 1292               	.LM166:
 1293 0632 9834      		cpi r25,lo8(72)
 1294 0634 01F4      		brne .+2
 1295 0636 00C0      		rjmp .L110
 1296 0638 9934      		cpi r25,lo8(73)
 1297 063a 00F4      		brsh .L116
 1298 063c 9234      		cpi r25,lo8(66)
 1299 063e 01F4      		brne .+2
 1300 0640 00C0      		rjmp .L107
 1301 0642 9334      		cpi r25,lo8(67)
 1302 0644 00F4      		brsh .L117
 1303 0646 9033      		cpi r25,lo8(48)
 1304 0648 01F0      		breq .L104
 1305 064a 9033      		cpi r25,lo8(48)
 1306 064c 00F4      		brsh .+2
 1307 064e 00C0      		rjmp .L103
 1308 0650 9F33      		cpi r25,lo8(63)
 1309 0652 01F0      		breq .L105
 1310 0654 9034      		cpi r25,lo8(64)
 1311 0656 01F0      		breq .+2
 1312 0658 00C0      		rjmp .L103
 1313 065a 00C0      		rjmp .L358
 1314               	.L117:
 1315 065c 9534      		cpi r25,lo8(69)
 1316 065e 01F4      		brne .+2
 1317 0660 00C0      		rjmp .L108
 1318 0662 9634      		cpi r25,lo8(70)
 1319 0664 01F0      		breq .+2
 1320 0666 00C0      		rjmp .L103
 1321 0668 00C0      		rjmp .L359
 1322               	.L116:
 1323 066a 9235      		cpi r25,lo8(82)
 1324 066c 01F4      		brne .+2
 1325 066e 00C0      		rjmp .L113
 1326 0670 9335      		cpi r25,lo8(83)
 1327 0672 00F4      		brsh .L118
 1328 0674 9C34      		cpi r25,lo8(76)
 1329 0676 01F4      		brne .+2
 1330 0678 00C0      		rjmp .L111
 1331 067a 9135      		cpi r25,lo8(81)
 1332 067c 01F0      		breq .+2
 1333 067e 00C0      		rjmp .L103
 1334 0680 00C0      		rjmp .L360
 1335               	.L118:
 1336 0682 9635      		cpi r25,lo8(86)
 1337 0684 01F4      		brne .+2
 1338 0686 00C0      		rjmp .L114
 1339 0688 9935      		cpi r25,lo8(89)
 1340 068a 01F0      		breq .+2
 1341 068c 00C0      		rjmp .L103
 1342 068e 00C0      		rjmp .L361
 1343               	.L104:
 1344               	.LM167:
 1345 0690 80E0      		ldi r24,lo8(gTextMsg_HELP_MSG_0)
 1346 0692 90E0      		ldi r25,hi8(gTextMsg_HELP_MSG_0)
 1347 0694 62E0      		ldi r22,lo8(2)
 1348 0696 0E94 0000 		call PrintFromPROGMEMln
 1349               	.LVL82:
 1350               	.LM168:
 1351 069a 1092 0000 		sts gFlashIndex,__zero_reg__
 1352 069e 1092 0000 		sts (gFlashIndex)+1,__zero_reg__
 1353 06a2 1092 0000 		sts (gFlashIndex)+2,__zero_reg__
 1354 06a6 1092 0000 		sts (gFlashIndex)+3,__zero_reg__
 1355               	.LM169:
 1356 06aa 1092 0000 		sts gRamIndex,__zero_reg__
 1357 06ae 1092 0000 		sts (gRamIndex)+1,__zero_reg__
 1358 06b2 1092 0000 		sts (gRamIndex)+2,__zero_reg__
 1359 06b6 1092 0000 		sts (gRamIndex)+3,__zero_reg__
 1360 06ba 00C0      		rjmp .L351
 1361               	.LVL83:
 1362               	.L105:
 1363               	.LM170:
 1364 06bc 80E0      		ldi r24,lo8(gTextMsg_HELP_MSG_QM)
 1365 06be 90E0      		ldi r25,hi8(gTextMsg_HELP_MSG_QM)
 1366 06c0 62E0      		ldi r22,lo8(2)
 1367 06c2 0E94 0000 		call PrintFromPROGMEMln
 1368               	.LVL84:
 1369               	.LBB588:
 1370               	.LBB589:
 1371               	.LM171:
 1372 06c6 80E0      		ldi r24,lo8(gTextMsg_Explorer)
 1373 06c8 90E0      		ldi r25,hi8(gTextMsg_Explorer)
 1374 06ca 60E0      		ldi r22,lo8(0)
 1375 06cc 0E94 0000 		call PrintFromPROGMEMln
 1376               	.LM172:
 1377 06d0 80E0      		ldi r24,lo8(gTextMsg_COMPILED_ON)
 1378 06d2 90E0      		ldi r25,hi8(gTextMsg_COMPILED_ON)
 1379 06d4 60E0      		ldi r22,lo8(0)
 1380 06d6 0E94 0000 		call PrintFromPROGMEM
 1381               	.LM173:
 1382 06da 80E0      		ldi r24,lo8(gTextMsg_GCC_DATE_STR)
 1383 06dc 90E0      		ldi r25,hi8(gTextMsg_GCC_DATE_STR)
 1384 06de 60E0      		ldi r22,lo8(0)
 1385 06e0 0E94 0000 		call PrintFromPROGMEMln
 1386               	.LM174:
 1387 06e4 80E0      		ldi r24,lo8(gTextMsg_CPU_Type)
 1388 06e6 90E0      		ldi r25,hi8(gTextMsg_CPU_Type)
 1389 06e8 60E0      		ldi r22,lo8(0)
 1390 06ea 0E94 0000 		call PrintFromPROGMEM
 1391               	.LM175:
 1392 06ee 80E0      		ldi r24,lo8(gTextMsg_CPU_Name)
 1393 06f0 90E0      		ldi r25,hi8(gTextMsg_CPU_Name)
 1394 06f2 60E0      		ldi r22,lo8(0)
 1395 06f4 0E94 0000 		call PrintFromPROGMEMln
 1396               	.LM176:
 1397 06f8 80E0      		ldi r24,lo8(gTextMsg_AVR_ARCH)
 1398 06fa 90E0      		ldi r25,hi8(gTextMsg_AVR_ARCH)
 1399 06fc 60E0      		ldi r22,lo8(0)
 1400 06fe 0E94 0000 		call PrintFromPROGMEM
 1401               	.LM177:
 1402 0702 86E0      		ldi r24,lo8(6)
 1403 0704 90E0      		ldi r25,hi8(6)
 1404 0706 61E0      		ldi r22,lo8(1)
 1405 0708 70E0      		ldi r23,hi8(1)
 1406 070a 0E94 0000 		call PrintDecInt
 1407               	.LM178:
 1408 070e 0E94 0000 		call PrintNewLine
 1409               	.LM179:
 1410 0712 80E0      		ldi r24,lo8(gTextMsg_GCC_VERSION)
 1411 0714 90E0      		ldi r25,hi8(gTextMsg_GCC_VERSION)
 1412 0716 60E0      		ldi r22,lo8(0)
 1413 0718 0E94 0000 		call PrintFromPROGMEM
 1414               	.LM180:
 1415 071c 80E0      		ldi r24,lo8(gTextMsg_GCC_VERSION_STR)
 1416 071e 90E0      		ldi r25,hi8(gTextMsg_GCC_VERSION_STR)
 1417 0720 60E0      		ldi r22,lo8(0)
 1418 0722 0E94 0000 		call PrintFromPROGMEMln
 1419               	.LM181:
 1420 0726 80E0      		ldi r24,lo8(gTextMsg_AVR_LIBC)
 1421 0728 90E0      		ldi r25,hi8(gTextMsg_AVR_LIBC)
 1422 072a 60E0      		ldi r22,lo8(0)
 1423 072c 0E94 0000 		call PrintFromPROGMEM
 1424               	.LM182:
 1425 0730 80E0      		ldi r24,lo8(gTextMsg_AVR_LIBC_VER_STR)
 1426 0732 90E0      		ldi r25,hi8(gTextMsg_AVR_LIBC_VER_STR)
 1427 0734 60E0      		ldi r22,lo8(0)
 1428 0736 0E94 0000 		call PrintFromPROGMEMln
 1429               	.LM183:
 1430 073a 80E0      		ldi r24,lo8(gTextMsg_CPU_SIGNATURE)
 1431 073c 90E0      		ldi r25,hi8(gTextMsg_CPU_SIGNATURE)
 1432 073e 60E0      		ldi r22,lo8(0)
 1433 0740 0E94 0000 		call PrintFromPROGMEM
 1434               	.LM184:
 1435 0744 8EE1      		ldi r24,lo8(30)
 1436 0746 0E94 0000 		call PrintHexByte
 1437               	.LM185:
 1438 074a 88E9      		ldi r24,lo8(-104)
 1439 074c 0E94 0000 		call PrintHexByte
 1440               	.LM186:
 1441 0750 81E0      		ldi r24,lo8(1)
 1442 0752 0E94 0000 		call PrintHexByte
 1443               	.LM187:
 1444 0756 0E94 0000 		call PrintNewLine
 1445               	.LM188:
 1446 075a 80E0      		ldi r24,lo8(gTextMsg_FUSE_BYTE_LOW)
 1447 075c 90E0      		ldi r25,hi8(gTextMsg_FUSE_BYTE_LOW)
 1448 075e 60E0      		ldi r22,lo8(0)
 1449 0760 0E94 0000 		call PrintFromPROGMEM
 1450               	.LBB590:
 1451               	.LM189:
 1452 0764 19E0      		ldi r17,lo8(9)
 1453               	.LVL85:
 1454 0766 E0E0      		ldi r30,lo8(0)
 1455 0768 F0E0      		ldi r31,hi8(0)
 1456               	/* #APP */
 1457               	 ;  1330 "stk500boot.c" 1
 1458 076a 1093 5700 		sts 87, r17
 1459 076e E491      		lpm r30, Z
 1460               		
 1461               	 ;  0 "" 2
 1462               	.LVL86:
 1463               	/* #NOAPP */
 1464               	.LBE590:
 1465               	.LM190:
 1466 0770 8E2F      		mov r24,r30
 1467 0772 0E94 0000 		call PrintHexByte
 1468               	.LVL87:
 1469               	.LM191:
 1470 0776 0E94 0000 		call PrintNewLine
 1471               	.LM192:
 1472 077a 80E0      		ldi r24,lo8(gTextMsg_FUSE_BYTE_HIGH)
 1473 077c 90E0      		ldi r25,hi8(gTextMsg_FUSE_BYTE_HIGH)
 1474 077e 60E0      		ldi r22,lo8(0)
 1475 0780 0E94 0000 		call PrintFromPROGMEM
 1476               	.LBB591:
 1477               	.LM193:
 1478 0784 E3E0      		ldi r30,lo8(3)
 1479 0786 F0E0      		ldi r31,hi8(3)
 1480               	/* #APP */
 1481               	 ;  1335 "stk500boot.c" 1
 1482 0788 1093 5700 		sts 87, r17
 1483 078c E491      		lpm r30, Z
 1484               		
 1485               	 ;  0 "" 2
 1486               	.LVL88:
 1487               	/* #NOAPP */
 1488               	.LBE591:
 1489               	.LM194:
 1490 078e 8E2F      		mov r24,r30
 1491 0790 0E94 0000 		call PrintHexByte
 1492               	.LVL89:
 1493               	.LM195:
 1494 0794 0E94 0000 		call PrintNewLine
 1495               	.LM196:
 1496 0798 80E0      		ldi r24,lo8(gTextMsg_FUSE_BYTE_EXT)
 1497 079a 90E0      		ldi r25,hi8(gTextMsg_FUSE_BYTE_EXT)
 1498 079c 60E0      		ldi r22,lo8(0)
 1499 079e 0E94 0000 		call PrintFromPROGMEM
 1500               	.LBB592:
 1501               	.LM197:
 1502 07a2 E2E0      		ldi r30,lo8(2)
 1503 07a4 F0E0      		ldi r31,hi8(2)
 1504               	/* #APP */
 1505               	 ;  1340 "stk500boot.c" 1
 1506 07a6 1093 5700 		sts 87, r17
 1507 07aa E491      		lpm r30, Z
 1508               		
 1509               	 ;  0 "" 2
 1510               	.LVL90:
 1511               	/* #NOAPP */
 1512               	.LBE592:
 1513               	.LM198:
 1514 07ac 8E2F      		mov r24,r30
 1515 07ae 0E94 0000 		call PrintHexByte
 1516               	.LVL91:
 1517               	.LM199:
 1518 07b2 0E94 0000 		call PrintNewLine
 1519               	.LM200:
 1520 07b6 80E0      		ldi r24,lo8(gTextMsg_FUSE_BYTE_LOCK)
 1521 07b8 90E0      		ldi r25,hi8(gTextMsg_FUSE_BYTE_LOCK)
 1522 07ba 60E0      		ldi r22,lo8(0)
 1523 07bc 0E94 0000 		call PrintFromPROGMEM
 1524               	.LBB593:
 1525               	.LM201:
 1526 07c0 E1E0      		ldi r30,lo8(1)
 1527 07c2 F0E0      		ldi r31,hi8(1)
 1528               	/* #APP */
 1529               	 ;  1345 "stk500boot.c" 1
 1530 07c4 1093 5700 		sts 87, r17
 1531 07c8 1491      		lpm r17, Z
 1532               		
 1533               	 ;  0 "" 2
 1534               	.LVL92:
 1535               	/* #NOAPP */
 1536               	.LBE593:
 1537               	.LM202:
 1538 07ca 812F      		mov r24,r17
 1539 07cc 0E94 0000 		call PrintHexByte
 1540               	.LM203:
 1541 07d0 0E94 0000 		call PrintNewLine
 1542 07d4 00C0      		rjmp .L344
 1543               	.LVL93:
 1544               	.L358:
 1545               	.LBE589:
 1546               	.LBE588:
 1547               	.LM204:
 1548 07d6 80E0      		ldi r24,lo8(gTextMsg_HELP_MSG_AT)
 1549 07d8 90E0      		ldi r25,hi8(gTextMsg_HELP_MSG_AT)
 1550 07da 62E0      		ldi r22,lo8(2)
 1551 07dc 0E94 0000 		call PrintFromPROGMEMln
 1552               	.LVL94:
 1553               	.LBB594:
 1554               	.LBB595:
 1555               	.LM205:
 1556 07e0 80E0      		ldi r24,lo8(gTextMsg_WriteToEEprom)
 1557 07e2 90E0      		ldi r25,hi8(gTextMsg_WriteToEEprom)
 1558 07e4 60E0      		ldi r22,lo8(0)
 1559 07e6 0E94 0000 		call PrintFromPROGMEMln
 1560               	.LM206:
 1561 07ea 0E94 0000 		call PrintNewLine
 1562 07ee 00E0      		ldi r16,lo8(0)
 1563 07f0 10E0      		ldi r17,hi8(0)
 1564               	.LVL95:
 1565 07f2 00C0      		rjmp .L120
 1566               	.LVL96:
 1567               	.L125:
 1568               	.LM207:
 1569 07f4 C801      		movw r24,r16
 1570 07f6 6F2D      		mov r22,r15
 1571 07f8 0E94 0000 		call __eewr_byte_m2560
 1572               	.LM208:
 1573 07fc FF20      		tst r15
 1574 07fe 01F4      		brne .L121
 1575               	.LM209:
 1576 0800 80E0      		ldi r24,lo8(gTextMsg_SPACE)
 1577 0802 90E0      		ldi r25,hi8(gTextMsg_SPACE)
 1578 0804 60E0      		ldi r22,lo8(0)
 1579 0806 0E94 0000 		call PrintFromPROGMEM
 1580 080a 00C0      		rjmp .L122
 1581               	.L121:
 1582               	.LBB597:
 1583               	.LBB598:
 1584               	.LM210:
 1585 080c F092 C600 		sts 198,r15
 1586               	.L123:
 1587               	.LM211:
 1588 0810 8091 C000 		lds r24,192
 1589 0814 86FF      		sbrs r24,6
 1590 0816 00C0      		rjmp .L123
 1591               	.LM212:
 1592 0818 8091 C000 		lds r24,192
 1593 081c 8064      		ori r24,lo8(64)
 1594 081e 8093 C000 		sts 192,r24
 1595               	.L122:
 1596               	.LBE598:
 1597               	.LBE597:
 1598               	.LM213:
 1599 0822 0F5F      		subi r16,lo8(-(1))
 1600 0824 1F4F      		sbci r17,hi8(-(1))
 1601               	.LVL97:
 1602               	.L120:
 1603               	.LBB596:
 1604               	.LM214:
 1605 0826 C801      		movw r24,r16
 1606 0828 8050      		subi r24,lo8(-(gTextMsg_Explorer))
 1607 082a 9040      		sbci r25,hi8(-(gTextMsg_Explorer))
 1608 082c AA27      		clr r26
 1609 082e 97FD      		sbrc r25,7
 1610 0830 A095      		com r26
 1611 0832 BA2F      		mov r27,r26
 1612               	/* #APP */
 1613               	 ;  1500 "stk500boot.c" 1
 1614 0834 ABBF      		out 59, r26
 1615 0836 FC01      		movw r30, r24
 1616 0838 F790      		elpm r15, Z+
 1617               		
 1618               	 ;  0 "" 2
 1619               	.LVL98:
 1620               	/* #NOAPP */
 1621               	.LBE596:
 1622 083a 5AE2      		ldi r21,lo8(42)
 1623 083c F516      		cp r15,r21
 1624 083e 01F0      		breq .L124
 1625 0840 62E0      		ldi r22,hi8(512)
 1626 0842 0030      		cpi r16,lo8(512)
 1627 0844 1607      		cpc r17,r22
 1628 0846 01F4      		brne .L125
 1629               	.L124:
 1630               	.LM215:
 1631 0848 0E94 0000 		call PrintNewLine
 1632               	.LM216:
 1633 084c 0E94 0000 		call PrintNewLine
 1634               	.LM217:
 1635 0850 80E0      		ldi r24,lo8(gTextMsg_ReadingEEprom)
 1636 0852 90E0      		ldi r25,hi8(gTextMsg_ReadingEEprom)
 1637 0854 60E0      		ldi r22,lo8(0)
 1638 0856 0E94 0000 		call PrintFromPROGMEMln
 1639               	.LM218:
 1640 085a 0E94 0000 		call PrintNewLine
 1641 085e CC24      		clr r12
 1642 0860 DD24      		clr r13
 1643               	.LVL99:
 1644 0862 00E0      		ldi r16,lo8(0)
 1645 0864 10E0      		ldi r17,hi8(0)
 1646               	.LVL100:
 1647 0866 00C0      		rjmp .L126
 1648               	.LVL101:
 1649               	.L132:
 1650               	.LBE595:
 1651               	.LM219:
 1652 0868 C801      		movw r24,r16
 1653 086a 0E94 0000 		call __eerd_byte_m2560
 1654 086e F82E      		mov r15,r24
 1655               	.LVL102:
 1656               	.LBB602:
 1657               	.LM220:
 1658 0870 8823      		tst r24
 1659 0872 01F4      		brne .L127
 1660               	.LVL103:
 1661               	.LM221:
 1662 0874 80E0      		ldi r24,lo8(gTextMsg_SPACE)
 1663 0876 90E0      		ldi r25,hi8(gTextMsg_SPACE)
 1664               	.LVL104:
 1665 0878 60E0      		ldi r22,lo8(0)
 1666 087a 0E94 0000 		call PrintFromPROGMEM
 1667 087e 00C0      		rjmp .L128
 1668               	.LVL105:
 1669               	.L127:
 1670               	.LBB599:
 1671               	.LBB600:
 1672               	.LM222:
 1673 0880 8093 C600 		sts 198,r24
 1674               	.LVL106:
 1675               	.L129:
 1676               	.LM223:
 1677 0884 8091 C000 		lds r24,192
 1678 0888 86FF      		sbrs r24,6
 1679 088a 00C0      		rjmp .L129
 1680               	.LM224:
 1681 088c 8091 C000 		lds r24,192
 1682 0890 8064      		ori r24,lo8(64)
 1683 0892 8093 C000 		sts 192,r24
 1684               	.L128:
 1685               	.LBE600:
 1686               	.LBE599:
 1687               	.LM225:
 1688 0896 FE14      		cp r15,r14
 1689 0898 01F0      		breq .L130
 1690               	.LM226:
 1691 089a 0894      		sec
 1692 089c C11C      		adc r12,__zero_reg__
 1693 089e D11C      		adc r13,__zero_reg__
 1694               	.L130:
 1695               	.LM227:
 1696 08a0 0F5F      		subi r16,lo8(-(1))
 1697 08a2 1F4F      		sbci r17,hi8(-(1))
 1698               	.LVL107:
 1699               	.L126:
 1700               	.LBB601:
 1701               	.LM228:
 1702 08a4 C801      		movw r24,r16
 1703 08a6 8050      		subi r24,lo8(-(gTextMsg_Explorer))
 1704 08a8 9040      		sbci r25,hi8(-(gTextMsg_Explorer))
 1705 08aa AA27      		clr r26
 1706 08ac 97FD      		sbrc r25,7
 1707 08ae A095      		com r26
 1708 08b0 BA2F      		mov r27,r26
 1709               	/* #APP */
 1710               	 ;  1525 "stk500boot.c" 1
 1711 08b2 ABBF      		out 59, r26
 1712 08b4 FC01      		movw r30, r24
 1713 08b6 E790      		elpm r14, Z+
 1714               		
 1715               	 ;  0 "" 2
 1716               	.LVL108:
 1717               	/* #NOAPP */
 1718               	.LBE601:
 1719 08b8 7AE2      		ldi r23,lo8(42)
 1720 08ba E716      		cp r14,r23
 1721 08bc 01F0      		breq .L131
 1722 08be 82E0      		ldi r24,hi8(512)
 1723 08c0 0030      		cpi r16,lo8(512)
 1724 08c2 1807      		cpc r17,r24
 1725 08c4 01F4      		brne .L132
 1726               	.L131:
 1727               	.LM229:
 1728 08c6 0E94 0000 		call PrintNewLine
 1729               	.LM230:
 1730 08ca 0E94 0000 		call PrintNewLine
 1731               	.LM231:
 1732 08ce 80E0      		ldi r24,lo8(gTextMsg_EEPROMerrorCnt)
 1733 08d0 90E0      		ldi r25,hi8(gTextMsg_EEPROMerrorCnt)
 1734 08d2 60E0      		ldi r22,lo8(0)
 1735 08d4 0E94 0000 		call PrintFromPROGMEM
 1736               	.LM232:
 1737 08d8 C601      		movw r24,r12
 1738 08da 61E0      		ldi r22,lo8(1)
 1739 08dc 70E0      		ldi r23,hi8(1)
 1740 08de 0E94 0000 		call PrintDecInt
 1741               	.LM233:
 1742 08e2 0E94 0000 		call PrintNewLine
 1743               	.LM234:
 1744 08e6 0E94 0000 		call PrintNewLine
 1745               	.LVL109:
 1746               	.L351:
 1747               	.LM235:
 1748 08ea 1092 0000 		sts gEepromIndex,__zero_reg__
 1749 08ee 1092 0000 		sts (gEepromIndex)+1,__zero_reg__
 1750 08f2 1092 0000 		sts (gEepromIndex)+2,__zero_reg__
 1751 08f6 1092 0000 		sts (gEepromIndex)+3,__zero_reg__
 1752 08fa 00C0      		rjmp .L344
 1753               	.LVL110:
 1754               	.L107:
 1755               	.LBE602:
 1756               	.LBE594:
 1757               	.LM236:
 1758 08fc 80E0      		ldi r24,lo8(gTextMsg_HELP_MSG_B)
 1759 08fe 90E0      		ldi r25,hi8(gTextMsg_HELP_MSG_B)
 1760 0900 62E0      		ldi r22,lo8(2)
 1761 0902 0E94 0000 		call PrintFromPROGMEMln
 1762               	.LVL111:
 1763               	.LBB603:
 1764               	.LBB604:
 1765               	.LM237:
 1766 0906 279A      		sbi 36-32,7
 1767               	.LM238:
 1768 0908 2F9A      		sbi 37-32,7
 1769 090a 00C0      		rjmp .L133
 1770               	.LVL112:
 1771               	.L136:
 1772               	.LM239:
 1773 090c 2F98      		cbi 37-32,7
 1774 090e 80E0      		ldi r24,lo8(0)
 1775 0910 90E0      		ldi r25,hi8(0)
 1776               	.LVL113:
 1777               	.L134:
 1778               	.LBB605:
 1779               	.LBB606:
 1780               	.LBB607:
 1781               	.LBB608:
 1782               	.LBB609:
 1783               	.LBB610:
 1784               	.LM240:
 1785 0912 E0ED      		ldi r30,lo8(2000)
 1786 0914 F7E0      		ldi r31,hi8(2000)
 1787               	.LVL114:
 1788               	/* #APP */
 1789               	 ;  105 "/usr/local/CrossPack-AVR-20100115/lib/gcc/avr/4.3.3/../../../../avr/include/util/delay_bas
 1790 0916 3197      		1: sbiw r30,1
 1791 0918 01F4      		brne 1b
 1792               	 ;  0 "" 2
 1793               	/* #NOAPP */
 1794               	.LBE610:
 1795               	.LBE609:
 1796               	.LBE608:
 1797               	.LBE607:
 1798               	.LM241:
 1799 091a 0196      		adiw r24,1
 1800 091c 8436      		cpi r24,100
 1801 091e 9105      		cpc r25,__zero_reg__
 1802 0920 01F4      		brne .L134
 1803               	.LBE606:
 1804               	.LBE605:
 1805               	.LM242:
 1806 0922 2F9A      		sbi 37-32,7
 1807 0924 80E0      		ldi r24,lo8(0)
 1808 0926 90E0      		ldi r25,hi8(0)
 1809               	.LVL115:
 1810               	.L135:
 1811               	.LBB611:
 1812               	.LBB612:
 1813               	.LBB613:
 1814               	.LBB614:
 1815               	.LBB615:
 1816               	.LBB616:
 1817               	.LM243:
 1818 0928 E0ED      		ldi r30,lo8(2000)
 1819 092a F7E0      		ldi r31,hi8(2000)
 1820               	.LVL116:
 1821               	/* #APP */
 1822               	 ;  105 "/usr/local/CrossPack-AVR-20100115/lib/gcc/avr/4.3.3/../../../../avr/include/util/delay_bas
 1823 092c 3197      		1: sbiw r30,1
 1824 092e 01F4      		brne 1b
 1825               	 ;  0 "" 2
 1826               	/* #NOAPP */
 1827               	.LBE616:
 1828               	.LBE615:
 1829               	.LBE614:
 1830               	.LBE613:
 1831               	.LM244:
 1832 0930 0196      		adiw r24,1
 1833 0932 8436      		cpi r24,100
 1834 0934 9105      		cpc r25,__zero_reg__
 1835 0936 01F4      		brne .L135
 1836               	.L133:
 1837               	.LBE612:
 1838               	.LBE611:
 1839               	.LBB617:
 1840               	.LBB618:
 1841               	.LM245:
 1842 0938 8091 C000 		lds r24,192
 1843               	.LVL117:
 1844               	.LBE618:
 1845               	.LBE617:
 1846               	.LM246:
 1847 093c 87FF      		sbrs r24,7
 1848 093e 00C0      		rjmp .L136
 1849               	.L284:
 1850               	.LBB619:
 1851               	.LBB620:
 1852               	.LM247:
 1853 0940 8091 C000 		lds r24,192
 1854 0944 87FF      		sbrs r24,7
 1855 0946 00C0      		rjmp .L284
 1856 0948 00C0      		rjmp .L352
 1857               	.LVL118:
 1858               	.L108:
 1859               	.LBE620:
 1860               	.LBE619:
 1861               	.LBE604:
 1862               	.LBE603:
 1863               	.LM248:
 1864 094a 80E0      		ldi r24,lo8(gTextMsg_HELP_MSG_E)
 1865 094c 90E0      		ldi r25,hi8(gTextMsg_HELP_MSG_E)
 1866 094e 62E0      		ldi r22,lo8(2)
 1867 0950 0E94 0000 		call PrintFromPROGMEMln
 1868               	.LVL119:
 1869               	.LM249:
 1870 0954 4091 0000 		lds r20,gEepromIndex
 1871 0958 5091 0000 		lds r21,(gEepromIndex)+1
 1872 095c 6091 0000 		lds r22,(gEepromIndex)+2
 1873 0960 7091 0000 		lds r23,(gEepromIndex)+3
 1874 0964 81E0      		ldi r24,lo8(1)
 1875 0966 20E1      		ldi r18,lo8(16)
 1876 0968 0E94 0000 		call DumpHex
 1877               	.LM250:
 1878 096c 8091 0000 		lds r24,gEepromIndex
 1879 0970 9091 0000 		lds r25,(gEepromIndex)+1
 1880 0974 A091 0000 		lds r26,(gEepromIndex)+2
 1881 0978 B091 0000 		lds r27,(gEepromIndex)+3
 1882 097c 8050      		subi r24,lo8(-(256))
 1883 097e 9F4F      		sbci r25,hi8(-(256))
 1884 0980 AF4F      		sbci r26,hlo8(-(256))
 1885 0982 BF4F      		sbci r27,hhi8(-(256))
 1886 0984 8093 0000 		sts gEepromIndex,r24
 1887 0988 9093 0000 		sts (gEepromIndex)+1,r25
 1888 098c A093 0000 		sts (gEepromIndex)+2,r26
 1889 0990 B093 0000 		sts (gEepromIndex)+3,r27
 1890               	.LM251:
 1891 0994 8050      		subi r24,lo8(4096)
 1892 0996 9041      		sbci r25,hi8(4096)
 1893 0998 A040      		sbci r26,hlo8(4096)
 1894 099a B040      		sbci r27,hhi8(4096)
 1895 099c 00F4      		brsh .+2
 1896 099e 00C0      		rjmp .L344
 1897 09a0 00C0      		rjmp .L351
 1898               	.LVL120:
 1899               	.L359:
 1900               	.LM252:
 1901 09a2 80E0      		ldi r24,lo8(gTextMsg_HELP_MSG_F)
 1902 09a4 90E0      		ldi r25,hi8(gTextMsg_HELP_MSG_F)
 1903 09a6 62E0      		ldi r22,lo8(2)
 1904 09a8 0E94 0000 		call PrintFromPROGMEMln
 1905               	.LVL121:
 1906               	.LM253:
 1907 09ac 4091 0000 		lds r20,gFlashIndex
 1908 09b0 5091 0000 		lds r21,(gFlashIndex)+1
 1909 09b4 6091 0000 		lds r22,(gFlashIndex)+2
 1910 09b8 7091 0000 		lds r23,(gFlashIndex)+3
 1911 09bc 80E0      		ldi r24,lo8(0)
 1912 09be 20E1      		ldi r18,lo8(16)
 1913 09c0 0E94 0000 		call DumpHex
 1914               	.LM254:
 1915 09c4 8091 0000 		lds r24,gFlashIndex
 1916 09c8 9091 0000 		lds r25,(gFlashIndex)+1
 1917 09cc A091 0000 		lds r26,(gFlashIndex)+2
 1918 09d0 B091 0000 		lds r27,(gFlashIndex)+3
 1919 09d4 8050      		subi r24,lo8(-(256))
 1920 09d6 9F4F      		sbci r25,hi8(-(256))
 1921 09d8 AF4F      		sbci r26,hlo8(-(256))
 1922 09da BF4F      		sbci r27,hhi8(-(256))
 1923 09dc 8093 0000 		sts gFlashIndex,r24
 1924 09e0 9093 0000 		sts (gFlashIndex)+1,r25
 1925 09e4 A093 0000 		sts (gFlashIndex)+2,r26
 1926 09e8 B093 0000 		sts (gFlashIndex)+3,r27
 1927 09ec 00C0      		rjmp .L344
 1928               	.LVL122:
 1929               	.L110:
 1930               	.LM255:
 1931 09ee 80E0      		ldi r24,lo8(gTextMsg_HELP_MSG_H)
 1932 09f0 90E0      		ldi r25,hi8(gTextMsg_HELP_MSG_H)
 1933 09f2 62E0      		ldi r22,lo8(2)
 1934 09f4 0E94 0000 		call PrintFromPROGMEMln
 1935               	.LVL123:
 1936               	.LBB621:
 1937               	.LBB622:
 1938               	.LM256:
 1939 09f8 80E0      		ldi r24,lo8(gTextMsg_HELP_MSG_0)
 1940 09fa 90E0      		ldi r25,hi8(gTextMsg_HELP_MSG_0)
 1941 09fc 60E0      		ldi r22,lo8(0)
 1942 09fe 0E94 0000 		call PrintFromPROGMEMln
 1943               	.LM257:
 1944 0a02 80E0      		ldi r24,lo8(gTextMsg_HELP_MSG_QM)
 1945 0a04 90E0      		ldi r25,hi8(gTextMsg_HELP_MSG_QM)
 1946 0a06 60E0      		ldi r22,lo8(0)
 1947 0a08 0E94 0000 		call PrintFromPROGMEMln
 1948               	.LM258:
 1949 0a0c 80E0      		ldi r24,lo8(gTextMsg_HELP_MSG_AT)
 1950 0a0e 90E0      		ldi r25,hi8(gTextMsg_HELP_MSG_AT)
 1951 0a10 60E0      		ldi r22,lo8(0)
 1952 0a12 0E94 0000 		call PrintFromPROGMEMln
 1953               	.LM259:
 1954 0a16 80E0      		ldi r24,lo8(gTextMsg_HELP_MSG_B)
 1955 0a18 90E0      		ldi r25,hi8(gTextMsg_HELP_MSG_B)
 1956 0a1a 60E0      		ldi r22,lo8(0)
 1957 0a1c 0E94 0000 		call PrintFromPROGMEMln
 1958               	.LM260:
 1959 0a20 80E0      		ldi r24,lo8(gTextMsg_HELP_MSG_E)
 1960 0a22 90E0      		ldi r25,hi8(gTextMsg_HELP_MSG_E)
 1961 0a24 60E0      		ldi r22,lo8(0)
 1962 0a26 0E94 0000 		call PrintFromPROGMEMln
 1963               	.LM261:
 1964 0a2a 80E0      		ldi r24,lo8(gTextMsg_HELP_MSG_F)
 1965 0a2c 90E0      		ldi r25,hi8(gTextMsg_HELP_MSG_F)
 1966 0a2e 60E0      		ldi r22,lo8(0)
 1967 0a30 0E94 0000 		call PrintFromPROGMEMln
 1968               	.LM262:
 1969 0a34 80E0      		ldi r24,lo8(gTextMsg_HELP_MSG_H)
 1970 0a36 90E0      		ldi r25,hi8(gTextMsg_HELP_MSG_H)
 1971 0a38 60E0      		ldi r22,lo8(0)
 1972 0a3a 0E94 0000 		call PrintFromPROGMEMln
 1973               	.LM263:
 1974 0a3e 80E0      		ldi r24,lo8(gTextMsg_HELP_MSG_L)
 1975 0a40 90E0      		ldi r25,hi8(gTextMsg_HELP_MSG_L)
 1976 0a42 60E0      		ldi r22,lo8(0)
 1977 0a44 0E94 0000 		call PrintFromPROGMEMln
 1978               	.LM264:
 1979 0a48 80E0      		ldi r24,lo8(gTextMsg_HELP_MSG_Q)
 1980 0a4a 90E0      		ldi r25,hi8(gTextMsg_HELP_MSG_Q)
 1981 0a4c 60E0      		ldi r22,lo8(0)
 1982 0a4e 0E94 0000 		call PrintFromPROGMEMln
 1983               	.LM265:
 1984 0a52 80E0      		ldi r24,lo8(gTextMsg_HELP_MSG_R)
 1985 0a54 90E0      		ldi r25,hi8(gTextMsg_HELP_MSG_R)
 1986 0a56 60E0      		ldi r22,lo8(0)
 1987 0a58 0E94 0000 		call PrintFromPROGMEMln
 1988               	.LM266:
 1989 0a5c 80E0      		ldi r24,lo8(gTextMsg_HELP_MSG_V)
 1990 0a5e 90E0      		ldi r25,hi8(gTextMsg_HELP_MSG_V)
 1991 0a60 60E0      		ldi r22,lo8(0)
 1992 0a62 0E94 0000 		call PrintFromPROGMEMln
 1993               	.LM267:
 1994 0a66 80E0      		ldi r24,lo8(gTextMsg_HELP_MSG_Y)
 1995 0a68 90E0      		ldi r25,hi8(gTextMsg_HELP_MSG_Y)
 1996 0a6a 00C0      		rjmp .L350
 1997               	.LVL124:
 1998               	.L111:
 1999               	.LBE622:
 2000               	.LBE621:
 2001               	.LM268:
 2002 0a6c 80E0      		ldi r24,lo8(gTextMsg_HELP_MSG_L)
 2003 0a6e 90E0      		ldi r25,hi8(gTextMsg_HELP_MSG_L)
 2004 0a70 62E0      		ldi r22,lo8(2)
 2005 0a72 0E94 0000 		call PrintFromPROGMEMln
 2006               	.LVL125:
 2007               	.LBB623:
 2008               	.LBB624:
 2009               	.LM269:
 2010 0a76 81E4      		ldi r24,lo8(65)
 2011 0a78 0E94 0000 		call PrintAvailablePort
 2012               	.LM270:
 2013 0a7c 82E4      		ldi r24,lo8(66)
 2014 0a7e 0E94 0000 		call PrintAvailablePort
 2015               	.LM271:
 2016 0a82 83E4      		ldi r24,lo8(67)
 2017 0a84 0E94 0000 		call PrintAvailablePort
 2018               	.LM272:
 2019 0a88 84E4      		ldi r24,lo8(68)
 2020 0a8a 0E94 0000 		call PrintAvailablePort
 2021               	.LM273:
 2022 0a8e 85E4      		ldi r24,lo8(69)
 2023 0a90 0E94 0000 		call PrintAvailablePort
 2024               	.LM274:
 2025 0a94 86E4      		ldi r24,lo8(70)
 2026 0a96 0E94 0000 		call PrintAvailablePort
 2027               	.LM275:
 2028 0a9a 87E4      		ldi r24,lo8(71)
 2029 0a9c 0E94 0000 		call PrintAvailablePort
 2030               	.LM276:
 2031 0aa0 88E4      		ldi r24,lo8(72)
 2032 0aa2 0E94 0000 		call PrintAvailablePort
 2033               	.LM277:
 2034 0aa6 8AE4      		ldi r24,lo8(74)
 2035 0aa8 0E94 0000 		call PrintAvailablePort
 2036               	.LM278:
 2037 0aac 8BE4      		ldi r24,lo8(75)
 2038 0aae 0E94 0000 		call PrintAvailablePort
 2039               	.LM279:
 2040 0ab2 8CE4      		ldi r24,lo8(76)
 2041 0ab4 0E94 0000 		call PrintAvailablePort
 2042 0ab8 00C0      		rjmp .L344
 2043               	.LVL126:
 2044               	.L360:
 2045               	.LBE624:
 2046               	.LBE623:
 2047               	.LM280:
 2048 0aba 80E0      		ldi r24,lo8(gTextMsg_HELP_MSG_Q)
 2049 0abc 90E0      		ldi r25,hi8(gTextMsg_HELP_MSG_Q)
 2050 0abe 62E0      		ldi r22,lo8(2)
 2051 0ac0 0E94 0000 		call PrintFromPROGMEMln
 2052               	.LVL127:
 2053 0ac4 9924      		clr r9
 2054 0ac6 9394      		inc r9
 2055 0ac8 AA24      		clr r10
 2056 0aca BB24      		clr r11
 2057               	.LVL128:
 2058 0acc 00C0      		rjmp .L138
 2059               	.LVL129:
 2060               	.L113:
 2061               	.LM281:
 2062 0ace 80E0      		ldi r24,lo8(gTextMsg_HELP_MSG_R)
 2063 0ad0 90E0      		ldi r25,hi8(gTextMsg_HELP_MSG_R)
 2064 0ad2 62E0      		ldi r22,lo8(2)
 2065 0ad4 0E94 0000 		call PrintFromPROGMEMln
 2066               	.LVL130:
 2067               	.LM282:
 2068 0ad8 4091 0000 		lds r20,gRamIndex
 2069 0adc 5091 0000 		lds r21,(gRamIndex)+1
 2070 0ae0 6091 0000 		lds r22,(gRamIndex)+2
 2071 0ae4 7091 0000 		lds r23,(gRamIndex)+3
 2072 0ae8 82E0      		ldi r24,lo8(2)
 2073 0aea 20E1      		ldi r18,lo8(16)
 2074 0aec 0E94 0000 		call DumpHex
 2075               	.LM283:
 2076 0af0 8091 0000 		lds r24,gRamIndex
 2077 0af4 9091 0000 		lds r25,(gRamIndex)+1
 2078 0af8 A091 0000 		lds r26,(gRamIndex)+2
 2079 0afc B091 0000 		lds r27,(gRamIndex)+3
 2080 0b00 8050      		subi r24,lo8(-(256))
 2081 0b02 9F4F      		sbci r25,hi8(-(256))
 2082 0b04 AF4F      		sbci r26,hlo8(-(256))
 2083 0b06 BF4F      		sbci r27,hhi8(-(256))
 2084 0b08 8093 0000 		sts gRamIndex,r24
 2085 0b0c 9093 0000 		sts (gRamIndex)+1,r25
 2086 0b10 A093 0000 		sts (gRamIndex)+2,r26
 2087 0b14 B093 0000 		sts (gRamIndex)+3,r27
 2088 0b18 00C0      		rjmp .L344
 2089               	.LVL131:
 2090               	.L114:
 2091               	.LM284:
 2092 0b1a 80E0      		ldi r24,lo8(gTextMsg_HELP_MSG_V)
 2093 0b1c 90E0      		ldi r25,hi8(gTextMsg_HELP_MSG_V)
 2094 0b1e 62E0      		ldi r22,lo8(2)
 2095 0b20 0E94 0000 		call PrintFromPROGMEMln
 2096               	.LVL132:
 2097               	.LBB625:
 2098               	.LBB626:
 2099               	.LM285:
 2100 0b24 80E0      		ldi r24,lo8(gTextMsg_CPU_Name)
 2101 0b26 90E0      		ldi r25,hi8(gTextMsg_CPU_Name)
 2102 0b28 60E0      		ldi r22,lo8(0)
 2103 0b2a 0E94 0000 		call PrintFromPROGMEMln
 2104               	.LM286:
 2105 0b2e 80E0      		ldi r24,lo8(gTextMsg_VECTOR_HEADER)
 2106 0b30 90E0      		ldi r25,hi8(gTextMsg_VECTOR_HEADER)
 2107 0b32 60E0      		ldi r22,lo8(0)
 2108 0b34 0E94 0000 		call PrintFromPROGMEMln
 2109 0b38 00E0      		ldi r16,lo8(gInterruptNameTable)
 2110 0b3a 10E0      		ldi r17,hi8(gInterruptNameTable)
 2111               	.LVL133:
 2112 0b3c CC5D      		subi r28,lo8(-292)
 2113 0b3e DE4F      		sbci r29,hi8(-292)
 2114 0b40 1983      		std Y+1,r17
 2115 0b42 0883      		st Y,r16
 2116 0b44 C452      		subi r28,lo8(292)
 2117 0b46 D140      		sbci r29,hi8(292)
 2118 0b48 6624      		clr r6
 2119 0b4a 7724      		clr r7
 2120 0b4c 4301      		movw r8,r6
 2121 0b4e CA5D      		subi r28,lo8(-294)
 2122 0b50 DE4F      		sbci r29,hi8(-294)
 2123 0b52 1982      		std Y+1,__zero_reg__
 2124 0b54 1882      		st Y,__zero_reg__
 2125 0b56 C652      		subi r28,lo8(294)
 2126 0b58 D140      		sbci r29,hi8(294)
 2127               	.LVL134:
 2128               	.L157:
 2129               	.LM287:
 2130 0b5a A401      		movw r20,r8
 2131 0b5c 9301      		movw r18,r6
 2132 0b5e 5695      		lsr r21
 2133 0b60 4795      		ror r20
 2134 0b62 3795      		ror r19
 2135 0b64 2795      		ror r18
 2136 0b66 C85D      		subi r28,lo8(-296)
 2137 0b68 DE4F      		sbci r29,hi8(-296)
 2138 0b6a 2883      		st Y,r18
 2139 0b6c 3983      		std Y+1,r19
 2140 0b6e 4A83      		std Y+2,r20
 2141 0b70 5B83      		std Y+3,r21
 2142 0b72 C852      		subi r28,lo8(296)
 2143 0b74 D140      		sbci r29,hi8(296)
 2144               	.LVL135:
 2145               	.LM288:
 2146 0b76 CA5D      		subi r28,lo8(-294)
 2147 0b78 DE4F      		sbci r29,hi8(-294)
 2148 0b7a 4881      		ld r20,Y
 2149 0b7c 5981      		ldd r21,Y+1
 2150 0b7e C652      		subi r28,lo8(294)
 2151 0b80 D140      		sbci r29,hi8(294)
 2152 0b82 4F5F      		subi r20,lo8(-(1))
 2153 0b84 5F4F      		sbci r21,hi8(-(1))
 2154 0b86 CA5D      		subi r28,lo8(-294)
 2155 0b88 DE4F      		sbci r29,hi8(-294)
 2156 0b8a 5983      		std Y+1,r21
 2157 0b8c 4883      		st Y,r20
 2158 0b8e C652      		subi r28,lo8(294)
 2159 0b90 D140      		sbci r29,hi8(294)
 2160               	.LVL136:
 2161 0b92 CA01      		movw r24,r20
 2162 0b94 62E0      		ldi r22,lo8(2)
 2163 0b96 70E0      		ldi r23,hi8(2)
 2164 0b98 0E94 0000 		call PrintDecInt
 2165               	.LBB627:
 2166               	.LBB628:
 2167               	.LM289:
 2168 0b9c 50E2      		ldi r21,lo8(32)
 2169 0b9e 5093 C600 		sts 198,r21
 2170               	.L139:
 2171               	.LM290:
 2172 0ba2 8091 C000 		lds r24,192
 2173 0ba6 86FF      		sbrs r24,6
 2174 0ba8 00C0      		rjmp .L139
 2175               	.LM291:
 2176 0baa 8091 C000 		lds r24,192
 2177 0bae 8064      		ori r24,lo8(64)
 2178 0bb0 8093 C000 		sts 192,r24
 2179               	.LBE628:
 2180               	.LBE627:
 2181               	.LBB629:
 2182               	.LBB630:
 2183               	.LM292:
 2184 0bb4 6DE2      		ldi r22,lo8(45)
 2185 0bb6 6093 C600 		sts 198,r22
 2186               	.L140:
 2187               	.LM293:
 2188 0bba 8091 C000 		lds r24,192
 2189 0bbe 86FF      		sbrs r24,6
 2190 0bc0 00C0      		rjmp .L140
 2191               	.LM294:
 2192 0bc2 8091 C000 		lds r24,192
 2193 0bc6 8064      		ori r24,lo8(64)
 2194 0bc8 8093 C000 		sts 192,r24
 2195               	.LBE630:
 2196               	.LBE629:
 2197               	.LBB631:
 2198               	.LBB632:
 2199               	.LM295:
 2200 0bcc 70E2      		ldi r23,lo8(32)
 2201 0bce 7093 C600 		sts 198,r23
 2202               	.L141:
 2203               	.LM296:
 2204 0bd2 8091 C000 		lds r24,192
 2205 0bd6 86FF      		sbrs r24,6
 2206 0bd8 00C0      		rjmp .L141
 2207               	.LM297:
 2208 0bda 8091 C000 		lds r24,192
 2209 0bde 8064      		ori r24,lo8(64)
 2210 0be0 8093 C000 		sts 192,r24
 2211               	.LBE632:
 2212               	.LBE631:
 2213               	.LM298:
 2214 0be4 C85D      		subi r28,lo8(-296)
 2215 0be6 DE4F      		sbci r29,hi8(-296)
 2216 0be8 E880      		ld r14,Y
 2217 0bea F980      		ldd r15,Y+1
 2218 0bec 0A81      		ldd r16,Y+2
 2219 0bee 1B81      		ldd r17,Y+3
 2220 0bf0 C852      		subi r28,lo8(296)
 2221 0bf2 D140      		sbci r29,hi8(296)
 2222               	.LVL137:
 2223 0bf4 BB27      		clr r27
 2224 0bf6 A12F      		mov r26,r17
 2225 0bf8 902F      		mov r25,r16
 2226 0bfa 8F2D      		mov r24,r15
 2227 0bfc 0E94 0000 		call PrintHexByte
 2228               	.LM299:
 2229 0c00 C85D      		subi r28,lo8(-296)
 2230 0c02 DE4F      		sbci r29,hi8(-296)
 2231 0c04 8881      		ld r24,Y
 2232 0c06 C852      		subi r28,lo8(296)
 2233 0c08 D140      		sbci r29,hi8(296)
 2234 0c0a 0E94 0000 		call PrintHexByte
 2235               	.LBB633:
 2236               	.LBB634:
 2237               	.LM300:
 2238 0c0e E0E2      		ldi r30,lo8(32)
 2239 0c10 FE2E      		mov r15,r30
 2240               	.LVL138:
 2241 0c12 F092 C600 		sts 198,r15
 2242               	.LVL139:
 2243               	.L142:
 2244               	.LM301:
 2245 0c16 8091 C000 		lds r24,192
 2246 0c1a 86FF      		sbrs r24,6
 2247 0c1c 00C0      		rjmp .L142
 2248               	.LM302:
 2249 0c1e 8091 C000 		lds r24,192
 2250 0c22 8064      		ori r24,lo8(64)
 2251 0c24 8093 C000 		sts 192,r24
 2252               	.LBE634:
 2253               	.LBE633:
 2254               	.LBB635:
 2255               	.LBB636:
 2256               	.LM303:
 2257 0c28 0DE3      		ldi r16,lo8(61)
 2258 0c2a 0093 C600 		sts 198,r16
 2259               	.L143:
 2260               	.LM304:
 2261 0c2e 8091 C000 		lds r24,192
 2262 0c32 86FF      		sbrs r24,6
 2263 0c34 00C0      		rjmp .L143
 2264               	.LM305:
 2265 0c36 8091 C000 		lds r24,192
 2266 0c3a 8064      		ori r24,lo8(64)
 2267 0c3c 8093 C000 		sts 192,r24
 2268               	.LBE636:
 2269               	.LBE635:
 2270               	.LBB637:
 2271               	.LBB638:
 2272               	.LM306:
 2273 0c40 10E2      		ldi r17,lo8(32)
 2274               	.LVL140:
 2275 0c42 1093 C600 		sts 198,r17
 2276               	.L144:
 2277               	.LM307:
 2278 0c46 8091 C000 		lds r24,192
 2279 0c4a 86FF      		sbrs r24,6
 2280 0c4c 00C0      		rjmp .L144
 2281               	.LM308:
 2282 0c4e 8091 C000 		lds r24,192
 2283 0c52 8064      		ori r24,lo8(64)
 2284 0c54 8093 C000 		sts 192,r24
 2285               	.LBE638:
 2286               	.LBE637:
 2287               	.LBB639:
 2288               	.LM309:
 2289               	/* #APP */
 2290               	 ;  1607 "stk500boot.c" 1
 2291 0c58 8BBE      		out 59, r8
 2292 0c5a F301      		movw r30, r6
 2293 0c5c 2791      		elpm r18, Z+
 2294               		
 2295               	 ;  0 "" 2
 2296               	/* #NOAPP */
 2297 0c5e C45D      		subi r28,lo8(-300)
 2298 0c60 DE4F      		sbci r29,hi8(-300)
 2299 0c62 2883      		st Y,r18
 2300 0c64 CC52      		subi r28,lo8(300)
 2301 0c66 D140      		sbci r29,hi8(300)
 2302               	.LVL141:
 2303               	.LBE639:
 2304 0c68 A22E      		mov r10,r18
 2305               	.LVL142:
 2306 0c6a BB24      		clr r11
 2307 0c6c CC24      		clr r12
 2308 0c6e DD24      		clr r13
 2309               	.LVL143:
 2310               	.LBB640:
 2311               	.LM310:
 2312 0c70 0894      		sec
 2313 0c72 611C      		adc r6,__zero_reg__
 2314 0c74 711C      		adc r7,__zero_reg__
 2315 0c76 811C      		adc r8,__zero_reg__
 2316 0c78 911C      		adc r9,__zero_reg__
 2317               	/* #APP */
 2318               	 ;  1608 "stk500boot.c" 1
 2319 0c7a 8BBE      		out 59, r8
 2320 0c7c F301      		movw r30, r6
 2321 0c7e 8791      		elpm r24, Z+
 2322               		
 2323               	 ;  0 "" 2
 2324               	.LVL144:
 2325               	/* #NOAPP */
 2326               	.LBE640:
 2327 0c80 282E      		mov r2,r24
 2328               	.LVL145:
 2329 0c82 3324      		clr r3
 2330 0c84 4424      		clr r4
 2331 0c86 5524      		clr r5
 2332               	.LBB641:
 2333               	.LM311:
 2334 0c88 0894      		sec
 2335 0c8a 611C      		adc r6,__zero_reg__
 2336 0c8c 711C      		adc r7,__zero_reg__
 2337 0c8e 811C      		adc r8,__zero_reg__
 2338 0c90 911C      		adc r9,__zero_reg__
 2339               	/* #APP */
 2340               	 ;  1609 "stk500boot.c" 1
 2341 0c92 8BBE      		out 59, r8
 2342 0c94 F301      		movw r30, r6
 2343 0c96 3791      		elpm r19, Z+
 2344               		
 2345               	 ;  0 "" 2
 2346               	/* #NOAPP */
 2347 0c98 C35D      		subi r28,lo8(-301)
 2348 0c9a DE4F      		sbci r29,hi8(-301)
 2349 0c9c 3883      		st Y,r19
 2350 0c9e CD52      		subi r28,lo8(301)
 2351 0ca0 D140      		sbci r29,hi8(301)
 2352               	.LVL146:
 2353               	.LBE641:
 2354               	.LBB642:
 2355               	.LM312:
 2356 0ca2 0894      		sec
 2357 0ca4 611C      		adc r6,__zero_reg__
 2358 0ca6 711C      		adc r7,__zero_reg__
 2359 0ca8 811C      		adc r8,__zero_reg__
 2360 0caa 911C      		adc r9,__zero_reg__
 2361               	/* #APP */
 2362               	 ;  1610 "stk500boot.c" 1
 2363 0cac 8BBE      		out 59, r8
 2364 0cae F301      		movw r30, r6
 2365 0cb0 4791      		elpm r20, Z+
 2366               		
 2367               	 ;  0 "" 2
 2368               	/* #NOAPP */
 2369 0cb2 C25D      		subi r28,lo8(-302)
 2370 0cb4 DE4F      		sbci r29,hi8(-302)
 2371 0cb6 4883      		st Y,r20
 2372 0cb8 CE52      		subi r28,lo8(302)
 2373 0cba D140      		sbci r29,hi8(302)
 2374               	.LVL147:
 2375 0cbc 7DEF      		ldi r23,lo8(-3)
 2376 0cbe E72E      		mov r14,r23
 2377 0cc0 7FEF      		ldi r23,hi8(-3)
 2378 0cc2 F72E      		mov r15,r23
 2379 0cc4 7FEF      		ldi r23,hlo8(-3)
 2380 0cc6 072F      		mov r16,r23
 2381 0cc8 7FEF      		ldi r23,hhi8(-3)
 2382 0cca 172F      		mov r17,r23
 2383 0ccc 6E0C      		add r6,r14
 2384 0cce 7F1C      		adc r7,r15
 2385 0cd0 801E      		adc r8,r16
 2386 0cd2 911E      		adc r9,r17
 2387               	.LBE642:
 2388               	.LM313:
 2389 0cd4 142D      		mov r17,r4
 2390 0cd6 032D      		mov r16,r3
 2391 0cd8 F22C      		mov r15,r2
 2392 0cda EE24      		clr r14
 2393               	.LVL148:
 2394 0cdc EA0C      		add r14,r10
 2395 0cde FB1C      		adc r15,r11
 2396 0ce0 0C1D      		adc r16,r12
 2397 0ce2 1D1D      		adc r17,r13
 2398               	.LM314:
 2399 0ce4 0E94 0000 		call PrintHexByte
 2400               	.LVL149:
 2401               	.LBB643:
 2402               	.LBB644:
 2403               	.LM315:
 2404 0ce8 20E2      		ldi r18,lo8(32)
 2405 0cea 2093 C600 		sts 198,r18
 2406               	.L145:
 2407               	.LM316:
 2408 0cee 8091 C000 		lds r24,192
 2409 0cf2 86FF      		sbrs r24,6
 2410 0cf4 00C0      		rjmp .L145
 2411               	.LM317:
 2412 0cf6 8091 C000 		lds r24,192
 2413 0cfa 8064      		ori r24,lo8(64)
 2414 0cfc 8093 C000 		sts 192,r24
 2415               	.LBE644:
 2416               	.LBE643:
 2417               	.LM318:
 2418 0d00 C45D      		subi r28,lo8(-300)
 2419 0d02 DE4F      		sbci r29,hi8(-300)
 2420 0d04 8881      		ld r24,Y
 2421 0d06 CC52      		subi r28,lo8(300)
 2422 0d08 D140      		sbci r29,hi8(300)
 2423 0d0a 0E94 0000 		call PrintHexByte
 2424               	.LBB645:
 2425               	.LBB646:
 2426               	.LM319:
 2427 0d0e 30E2      		ldi r19,lo8(32)
 2428 0d10 3093 C600 		sts 198,r19
 2429               	.L146:
 2430               	.LM320:
 2431 0d14 8091 C000 		lds r24,192
 2432 0d18 86FF      		sbrs r24,6
 2433 0d1a 00C0      		rjmp .L146
 2434               	.LM321:
 2435 0d1c 8091 C000 		lds r24,192
 2436 0d20 8064      		ori r24,lo8(64)
 2437 0d22 8093 C000 		sts 192,r24
 2438               	.LBE646:
 2439               	.LBE645:
 2440               	.LM322:
 2441 0d26 C25D      		subi r28,lo8(-302)
 2442 0d28 DE4F      		sbci r29,hi8(-302)
 2443 0d2a 8881      		ld r24,Y
 2444 0d2c CE52      		subi r28,lo8(302)
 2445 0d2e D140      		sbci r29,hi8(302)
 2446 0d30 0E94 0000 		call PrintHexByte
 2447               	.LBB647:
 2448               	.LBB648:
 2449               	.LM323:
 2450 0d34 40E2      		ldi r20,lo8(32)
 2451 0d36 4093 C600 		sts 198,r20
 2452               	.L147:
 2453               	.LM324:
 2454 0d3a 8091 C000 		lds r24,192
 2455 0d3e 86FF      		sbrs r24,6
 2456 0d40 00C0      		rjmp .L147
 2457               	.LM325:
 2458 0d42 8091 C000 		lds r24,192
 2459 0d46 8064      		ori r24,lo8(64)
 2460 0d48 8093 C000 		sts 192,r24
 2461               	.LBE648:
 2462               	.LBE647:
 2463               	.LM326:
 2464 0d4c C35D      		subi r28,lo8(-301)
 2465 0d4e DE4F      		sbci r29,hi8(-301)
 2466 0d50 8881      		ld r24,Y
 2467 0d52 CD52      		subi r28,lo8(301)
 2468 0d54 D140      		sbci r29,hi8(301)
 2469 0d56 0E94 0000 		call PrintHexByte
 2470               	.LBB649:
 2471               	.LBB650:
 2472               	.LM327:
 2473 0d5a 50E2      		ldi r21,lo8(32)
 2474 0d5c 5093 C600 		sts 198,r21
 2475               	.L148:
 2476               	.LM328:
 2477 0d60 8091 C000 		lds r24,192
 2478 0d64 86FF      		sbrs r24,6
 2479 0d66 00C0      		rjmp .L148
 2480               	.LM329:
 2481 0d68 8091 C000 		lds r24,192
 2482 0d6c 8064      		ori r24,lo8(64)
 2483 0d6e 8093 C000 		sts 192,r24
 2484               	.LBE650:
 2485               	.LBE649:
 2486               	.LM330:
 2487 0d72 6FEF      		ldi r22,lo8(65535)
 2488 0d74 E616      		cp r14,r22
 2489 0d76 6FEF      		ldi r22,hi8(65535)
 2490 0d78 F606      		cpc r15,r22
 2491 0d7a 60E0      		ldi r22,hlo8(65535)
 2492 0d7c 0607      		cpc r16,r22
 2493 0d7e 60E0      		ldi r22,hhi8(65535)
 2494 0d80 1607      		cpc r17,r22
 2495 0d82 01F4      		brne .L149
 2496               	.LM331:
 2497 0d84 80E0      		ldi r24,lo8(gTextMsg_noVector)
 2498 0d86 90E0      		ldi r25,hi8(gTextMsg_noVector)
 2499 0d88 60E0      		ldi r22,lo8(0)
 2500 0d8a 0E94 0000 		call PrintFromPROGMEM
 2501 0d8e 00C0      		rjmp .L150
 2502               	.L149:
 2503               	.LM332:
 2504 0d90 D801      		movw r26,r16
 2505 0d92 C701      		movw r24,r14
 2506 0d94 8070      		andi r24,lo8(49152)
 2507 0d96 907C      		andi r25,hi8(49152)
 2508 0d98 A070      		andi r26,hlo8(49152)
 2509 0d9a B070      		andi r27,hhi8(49152)
 2510 0d9c 8050      		subi r24,lo8(49152)
 2511 0d9e 904C      		sbci r25,hi8(49152)
 2512 0da0 A040      		sbci r26,hlo8(49152)
 2513 0da2 B040      		sbci r27,hhi8(49152)
 2514 0da4 01F4      		brne .L151
 2515               	.LM333:
 2516 0da6 8FEF      		ldi r24,lo8(16383)
 2517 0da8 9FE3      		ldi r25,hi8(16383)
 2518 0daa A0E0      		ldi r26,hlo8(16383)
 2519 0dac B0E0      		ldi r27,hhi8(16383)
 2520 0dae E822      		and r14,r24
 2521 0db0 F922      		and r15,r25
 2522 0db2 0A23      		and r16,r26
 2523 0db4 1B23      		and r17,r27
 2524               	.LVL150:
 2525               	.LM334:
 2526 0db6 C85D      		subi r28,lo8(-296)
 2527 0db8 DE4F      		sbci r29,hi8(-296)
 2528 0dba A880      		ld r10,Y
 2529 0dbc B980      		ldd r11,Y+1
 2530 0dbe CA80      		ldd r12,Y+2
 2531 0dc0 DB80      		ldd r13,Y+3
 2532 0dc2 C852      		subi r28,lo8(296)
 2533 0dc4 D140      		sbci r29,hi8(296)
 2534               	.LVL151:
 2535 0dc6 AE0C      		add r10,r14
 2536 0dc8 BF1C      		adc r11,r15
 2537 0dca C01E      		adc r12,r16
 2538 0dcc D11E      		adc r13,r17
 2539               	.LM335:
 2540 0dce AA0C      		lsl r10
 2541 0dd0 BB1C      		rol r11
 2542 0dd2 CC1C      		rol r12
 2543 0dd4 DD1C      		rol r13
 2544               	.LM336:
 2545 0dd6 80E0      		ldi r24,lo8(gTextMsg_rjmp)
 2546 0dd8 90E0      		ldi r25,hi8(gTextMsg_rjmp)
 2547 0dda 60E0      		ldi r22,lo8(0)
 2548 0ddc 0E94 0000 		call PrintFromPROGMEM
 2549               	.LM337:
 2550 0de0 BB27      		clr r27
 2551 0de2 A12F      		mov r26,r17
 2552 0de4 902F      		mov r25,r16
 2553 0de6 8F2D      		mov r24,r15
 2554 0de8 0E94 0000 		call PrintHexByte
 2555               	.LM338:
 2556 0dec 8E2D      		mov r24,r14
 2557 0dee 0E94 0000 		call PrintHexByte
 2558               	.LBB651:
 2559               	.LBB652:
 2560               	.LM339:
 2561 0df2 90E2      		ldi r25,lo8(32)
 2562 0df4 9093 C600 		sts 198,r25
 2563               	.LVL152:
 2564               	.L152:
 2565               	.LM340:
 2566 0df8 8091 C000 		lds r24,192
 2567 0dfc 86FF      		sbrs r24,6
 2568 0dfe 00C0      		rjmp .L152
 2569               	.LM341:
 2570 0e00 8091 C000 		lds r24,192
 2571 0e04 8064      		ori r24,lo8(64)
 2572 0e06 8093 C000 		sts 192,r24
 2573               	.LBE652:
 2574               	.LBE651:
 2575               	.LBB653:
 2576               	.LBB654:
 2577               	.LM342:
 2578 0e0a AEE3      		ldi r26,lo8(62)
 2579 0e0c A093 C600 		sts 198,r26
 2580               	.L153:
 2581               	.LM343:
 2582 0e10 8091 C000 		lds r24,192
 2583 0e14 86FF      		sbrs r24,6
 2584 0e16 00C0      		rjmp .L153
 2585 0e18 00C0      		rjmp .L353
 2586               	.LVL153:
 2587               	.L151:
 2588               	.LBE654:
 2589               	.LBE653:
 2590               	.LM344:
 2591 0e1a 2EE0      		ldi r18,lo8(65038)
 2592 0e1c 3EEF      		ldi r19,hi8(65038)
 2593 0e1e 40E0      		ldi r20,hlo8(65038)
 2594 0e20 50E0      		ldi r21,hhi8(65038)
 2595 0e22 E222      		and r14,r18
 2596 0e24 F322      		and r15,r19
 2597 0e26 0423      		and r16,r20
 2598 0e28 1523      		and r17,r21
 2599 0e2a 3CE0      		ldi r19,lo8(37900)
 2600 0e2c E316      		cp r14,r19
 2601 0e2e 34E9      		ldi r19,hi8(37900)
 2602 0e30 F306      		cpc r15,r19
 2603 0e32 30E0      		ldi r19,hlo8(37900)
 2604 0e34 0307      		cpc r16,r19
 2605 0e36 30E0      		ldi r19,hhi8(37900)
 2606 0e38 1307      		cpc r17,r19
 2607 0e3a 01F0      		breq .+2
 2608 0e3c 00C0      		rjmp .L150
 2609               	.LM345:
 2610 0e3e C25D      		subi r28,lo8(-302)
 2611 0e40 DE4F      		sbci r29,hi8(-302)
 2612 0e42 4881      		ld r20,Y
 2613 0e44 CE52      		subi r28,lo8(302)
 2614 0e46 D140      		sbci r29,hi8(302)
 2615 0e48 E42E      		mov r14,r20
 2616               	.LVL154:
 2617 0e4a FF24      		clr r15
 2618               	.LVL155:
 2619 0e4c 00E0      		ldi r16,lo8(0)
 2620 0e4e 10E0      		ldi r17,hi8(0)
 2621               	.LVL156:
 2622 0e50 102F      		mov r17,r16
 2623 0e52 0F2D      		mov r16,r15
 2624 0e54 FE2C      		mov r15,r14
 2625 0e56 EE24      		clr r14
 2626               	.LVL157:
 2627 0e58 C35D      		subi r28,lo8(-301)
 2628 0e5a DE4F      		sbci r29,hi8(-301)
 2629 0e5c 5881      		ld r21,Y
 2630 0e5e CD52      		subi r28,lo8(301)
 2631 0e60 D140      		sbci r29,hi8(301)
 2632 0e62 E50E      		add r14,r21
 2633 0e64 F11C      		adc r15,__zero_reg__
 2634 0e66 011D      		adc r16,__zero_reg__
 2635 0e68 111D      		adc r17,__zero_reg__
 2636 0e6a D601      		movw r26,r12
 2637 0e6c C501      		movw r24,r10
 2638 0e6e 8170      		andi r24,lo8(1)
 2639 0e70 9070      		andi r25,hi8(1)
 2640 0e72 A070      		andi r26,hlo8(1)
 2641 0e74 B070      		andi r27,hhi8(1)
 2642 0e76 DC01      		movw r26,r24
 2643 0e78 9927      		clr r25
 2644 0e7a 8827      		clr r24
 2645 0e7c E80E      		add r14,r24
 2646 0e7e F91E      		adc r15,r25
 2647 0e80 0A1F      		adc r16,r26
 2648 0e82 1B1F      		adc r17,r27
 2649 0e84 60EF      		ldi r22,lo8(240)
 2650 0e86 70E0      		ldi r23,hi8(240)
 2651 0e88 80E0      		ldi r24,hlo8(240)
 2652 0e8a 90E0      		ldi r25,hhi8(240)
 2653 0e8c A622      		and r10,r22
 2654 0e8e B722      		and r11,r23
 2655 0e90 C822      		and r12,r24
 2656 0e92 D922      		and r13,r25
 2657               	.LVL158:
 2658 0e94 F1E1      		ldi r31,17
 2659 0e96 AA0C      	1:	lsl r10
 2660 0e98 BB1C      		rol r11
 2661 0e9a CC1C      		rol r12
 2662 0e9c DD1C      		rol r13
 2663 0e9e FA95      		dec r31
 2664 0ea0 01F4      		brne 1b
 2665 0ea2 EA0C      		add r14,r10
 2666 0ea4 FB1C      		adc r15,r11
 2667 0ea6 0C1D      		adc r16,r12
 2668 0ea8 1D1D      		adc r17,r13
 2669 0eaa 81E0      		ldi r24,lo8(1)
 2670 0eac 90E0      		ldi r25,hi8(1)
 2671 0eae A0E0      		ldi r26,hlo8(1)
 2672 0eb0 B0E0      		ldi r27,hhi8(1)
 2673 0eb2 2822      		and r2,r24
 2674 0eb4 3922      		and r3,r25
 2675 0eb6 4A22      		and r4,r26
 2676 0eb8 5B22      		and r5,r27
 2677               	.LVL159:
 2678 0eba E5E1      		ldi r30,21
 2679 0ebc 220C      	1:	lsl r2
 2680 0ebe 331C      		rol r3
 2681 0ec0 441C      		rol r4
 2682 0ec2 551C      		rol r5
 2683 0ec4 EA95      		dec r30
 2684 0ec6 01F4      		brne 1b
 2685 0ec8 E20C      		add r14,r2
 2686 0eca F31C      		adc r15,r3
 2687 0ecc 041D      		adc r16,r4
 2688 0ece 151D      		adc r17,r5
 2689               	.LM346:
 2690 0ed0 5701      		movw r10,r14
 2691 0ed2 6801      		movw r12,r16
 2692               	.LVL160:
 2693 0ed4 AA0C      		lsl r10
 2694 0ed6 BB1C      		rol r11
 2695 0ed8 CC1C      		rol r12
 2696 0eda DD1C      		rol r13
 2697               	.LM347:
 2698 0edc 80E0      		ldi r24,lo8(gTextMsg_jmp)
 2699 0ede 90E0      		ldi r25,hi8(gTextMsg_jmp)
 2700 0ee0 60E0      		ldi r22,lo8(0)
 2701 0ee2 0E94 0000 		call PrintFromPROGMEM
 2702               	.LM348:
 2703 0ee6 C801      		movw r24,r16
 2704 0ee8 AA27      		clr r26
 2705 0eea BB27      		clr r27
 2706 0eec 0E94 0000 		call PrintHexByte
 2707               	.LM349:
 2708 0ef0 BB27      		clr r27
 2709 0ef2 A12F      		mov r26,r17
 2710 0ef4 902F      		mov r25,r16
 2711 0ef6 8F2D      		mov r24,r15
 2712 0ef8 0E94 0000 		call PrintHexByte
 2713               	.LM350:
 2714 0efc 8E2D      		mov r24,r14
 2715 0efe 0E94 0000 		call PrintHexByte
 2716               	.LBB655:
 2717               	.LBB656:
 2718               	.LM351:
 2719 0f02 90E2      		ldi r25,lo8(32)
 2720 0f04 9093 C600 		sts 198,r25
 2721               	.L154:
 2722               	.LM352:
 2723 0f08 8091 C000 		lds r24,192
 2724 0f0c 86FF      		sbrs r24,6
 2725 0f0e 00C0      		rjmp .L154
 2726               	.LM353:
 2727 0f10 8091 C000 		lds r24,192
 2728 0f14 8064      		ori r24,lo8(64)
 2729 0f16 8093 C000 		sts 192,r24
 2730               	.LBE656:
 2731               	.LBE655:
 2732               	.LBB657:
 2733               	.LBB658:
 2734               	.LM354:
 2735 0f1a AEE3      		ldi r26,lo8(62)
 2736 0f1c A093 C600 		sts 198,r26
 2737               	.L155:
 2738               	.LM355:
 2739 0f20 8091 C000 		lds r24,192
 2740 0f24 86FF      		sbrs r24,6
 2741 0f26 00C0      		rjmp .L155
 2742               	.LVL161:
 2743               	.L353:
 2744               	.LM356:
 2745 0f28 8091 C000 		lds r24,192
 2746 0f2c 8064      		ori r24,lo8(64)
 2747 0f2e 8093 C000 		sts 192,r24
 2748               	.LBE658:
 2749               	.LBE657:
 2750               	.LM357:
 2751 0f32 C601      		movw r24,r12
 2752 0f34 AA27      		clr r26
 2753 0f36 BB27      		clr r27
 2754 0f38 0E94 0000 		call PrintHexByte
 2755               	.LM358:
 2756 0f3c BB27      		clr r27
 2757 0f3e AD2D      		mov r26,r13
 2758 0f40 9C2D      		mov r25,r12
 2759 0f42 8B2D      		mov r24,r11
 2760 0f44 0E94 0000 		call PrintHexByte
 2761               	.LM359:
 2762 0f48 8A2D      		mov r24,r10
 2763 0f4a 0E94 0000 		call PrintHexByte
 2764               	.LVL162:
 2765               	.L150:
 2766               	.LBB659:
 2767               	.LBB660:
 2768               	.LM360:
 2769 0f4e B0E2      		ldi r27,lo8(32)
 2770 0f50 B093 C600 		sts 198,r27
 2771               	.L156:
 2772               	.LM361:
 2773 0f54 8091 C000 		lds r24,192
 2774 0f58 86FF      		sbrs r24,6
 2775 0f5a 00C0      		rjmp .L156
 2776               	.LM362:
 2777 0f5c 8091 C000 		lds r24,192
 2778 0f60 8064      		ori r24,lo8(64)
 2779 0f62 8093 C000 		sts 192,r24
 2780               	.LBE660:
 2781               	.LBE659:
 2782               	.LBB661:
 2783               	.LM363:
 2784 0f66 CC5D      		subi r28,lo8(-292)
 2785 0f68 DE4F      		sbci r29,hi8(-292)
 2786 0f6a E881      		ld r30,Y
 2787 0f6c F981      		ldd r31,Y+1
 2788 0f6e C452      		subi r28,lo8(292)
 2789 0f70 D140      		sbci r29,hi8(292)
 2790 0f72 CF01      		movw r24,r30
 2791 0f74 AA27      		clr r26
 2792 0f76 97FD      		sbrc r25,7
 2793 0f78 A095      		com r26
 2794 0f7a BA2F      		mov r27,r26
 2795               	.LBE661:
 2796               	.LM364:
 2797               	/* #APP */
 2798               	 ;  1675 "stk500boot.c" 1
 2799 0f7c ABBF      		out 59, r26
 2800 0f7e FC01      		movw r30, r24
 2801 0f80 8791      		elpm r24, Z+
 2802 0f82 9691      		elpm r25, Z
 2803               		
 2804               	 ;  0 "" 2
 2805               	/* #NOAPP */
 2806 0f84 60E0      		ldi r22,lo8(0)
 2807 0f86 0E94 0000 		call PrintFromPROGMEM
 2808               	.LM365:
 2809 0f8a 0E94 0000 		call PrintNewLine
 2810 0f8e CC5D      		subi r28,lo8(-292)
 2811 0f90 DE4F      		sbci r29,hi8(-292)
 2812 0f92 0881      		ld r16,Y
 2813 0f94 1981      		ldd r17,Y+1
 2814 0f96 C452      		subi r28,lo8(292)
 2815 0f98 D140      		sbci r29,hi8(292)
 2816               	.LVL163:
 2817 0f9a 0E5F      		subi r16,lo8(-(2))
 2818 0f9c 1F4F      		sbci r17,hi8(-(2))
 2819 0f9e CC5D      		subi r28,lo8(-292)
 2820 0fa0 DE4F      		sbci r29,hi8(-292)
 2821 0fa2 1983      		std Y+1,r17
 2822 0fa4 0883      		st Y,r16
 2823 0fa6 C452      		subi r28,lo8(292)
 2824 0fa8 D140      		sbci r29,hi8(292)
 2825               	.LM366:
 2826 0faa CA5D      		subi r28,lo8(-294)
 2827 0fac DE4F      		sbci r29,hi8(-294)
 2828 0fae 2881      		ld r18,Y
 2829 0fb0 3981      		ldd r19,Y+1
 2830 0fb2 C652      		subi r28,lo8(294)
 2831 0fb4 D140      		sbci r29,hi8(294)
 2832 0fb6 2933      		cpi r18,57
 2833 0fb8 3105      		cpc r19,__zero_reg__
 2834 0fba 01F4      		brne .+2
 2835 0fbc 00C0      		rjmp .L344
 2836 0fbe 44E0      		ldi r20,lo8(4)
 2837 0fc0 50E0      		ldi r21,hi8(4)
 2838 0fc2 60E0      		ldi r22,hlo8(4)
 2839 0fc4 70E0      		ldi r23,hhi8(4)
 2840 0fc6 640E      		add r6,r20
 2841 0fc8 751E      		adc r7,r21
 2842 0fca 861E      		adc r8,r22
 2843 0fcc 971E      		adc r9,r23
 2844 0fce 00C0      		rjmp .L157
 2845               	.LVL164:
 2846               	.L361:
 2847               	.LBE626:
 2848               	.LBE625:
 2849               	.LM367:
 2850 0fd0 80E0      		ldi r24,lo8(gTextMsg_HELP_MSG_Y)
 2851 0fd2 90E0      		ldi r25,hi8(gTextMsg_HELP_MSG_Y)
 2852 0fd4 62E0      		ldi r22,lo8(2)
 2853 0fd6 0E94 0000 		call PrintFromPROGMEMln
 2854               	.LVL165:
 2855               	.LBB662:
 2856               	.LBB663:
 2857               	.LM368:
 2858 0fda 80E0      		ldi r24,lo8(gTextMsg_WHAT_PORT)
 2859 0fdc 90E0      		ldi r25,hi8(gTextMsg_WHAT_PORT)
 2860 0fde 60E0      		ldi r22,lo8(0)
 2861 0fe0 0E94 0000 		call PrintFromPROGMEM
 2862               	.L158:
 2863               	.LBB664:
 2864               	.LBB665:
 2865               	.LM369:
 2866 0fe4 8091 C000 		lds r24,192
 2867 0fe8 87FF      		sbrs r24,7
 2868 0fea 00C0      		rjmp .L158
 2869               	.LM370:
 2870 0fec 1091 C600 		lds r17,198
 2871               	.LVL166:
 2872               	.LBE665:
 2873               	.LBE664:
 2874               	.LM371:
 2875 0ff0 1F75      		andi r17,lo8(95)
 2876               	.LBB666:
 2877               	.LBB667:
 2878               	.LM372:
 2879 0ff2 1093 C600 		sts 198,r17
 2880               	.L159:
 2881               	.LM373:
 2882 0ff6 8091 C000 		lds r24,192
 2883 0ffa 86FF      		sbrs r24,6
 2884 0ffc 00C0      		rjmp .L159
 2885               	.LM374:
 2886 0ffe 8091 C000 		lds r24,192
 2887 1002 8064      		ori r24,lo8(64)
 2888 1004 8093 C000 		sts 192,r24
 2889               	.LBE667:
 2890               	.LBE666:
 2891               	.LM375:
 2892 1008 0E94 0000 		call PrintNewLine
 2893               	.LM376:
 2894 100c 812F      		mov r24,r17
 2895 100e 8154      		subi r24,lo8(-(-65))
 2896 1010 8A31      		cpi r24,lo8(26)
 2897 1012 00F0      		brlo .+2
 2898 1014 00C0      		rjmp .L160
 2899               	.LM377:
 2900 1016 1634      		cpi r17,lo8(70)
 2901 1018 01F4      		brne .+2
 2902 101a 00C0      		rjmp .L167
 2903 101c 1734      		cpi r17,lo8(71)
 2904 101e 00F4      		brsh .L173
 2905 1020 1334      		cpi r17,lo8(67)
 2906 1022 01F4      		brne .+2
 2907 1024 00C0      		rjmp .L164
 2908 1026 1434      		cpi r17,lo8(68)
 2909 1028 00F4      		brsh .L174
 2910 102a 1134      		cpi r17,lo8(65)
 2911 102c 01F0      		breq .L162
 2912 102e 1234      		cpi r17,lo8(66)
 2913 1030 01F0      		breq .+2
 2914 1032 00C0      		rjmp .L161
 2915 1034 00C0      		rjmp .L362
 2916               	.L174:
 2917 1036 1434      		cpi r17,lo8(68)
 2918 1038 01F4      		brne .+2
 2919 103a 00C0      		rjmp .L165
 2920 103c 1534      		cpi r17,lo8(69)
 2921 103e 01F0      		breq .+2
 2922 1040 00C0      		rjmp .L161
 2923 1042 00C0      		rjmp .L363
 2924               	.L173:
 2925 1044 1A34      		cpi r17,lo8(74)
 2926 1046 01F4      		brne .+2
 2927 1048 00C0      		rjmp .L170
 2928 104a 1B34      		cpi r17,lo8(75)
 2929 104c 00F4      		brsh .L175
 2930 104e 1734      		cpi r17,lo8(71)
 2931 1050 01F4      		brne .+2
 2932 1052 00C0      		rjmp .L168
 2933 1054 1834      		cpi r17,lo8(72)
 2934 1056 01F0      		breq .+2
 2935 1058 00C0      		rjmp .L161
 2936 105a 00C0      		rjmp .L364
 2937               	.L175:
 2938 105c 1B34      		cpi r17,lo8(75)
 2939 105e 01F4      		brne .+2
 2940 1060 00C0      		rjmp .L171
 2941 1062 1C34      		cpi r17,lo8(76)
 2942 1064 01F0      		breq .+2
 2943 1066 00C0      		rjmp .L161
 2944 1068 00C0      		rjmp .L365
 2945               	.L162:
 2946               	.LM378:
 2947 106a 8FEF      		ldi r24,lo8(-1)
 2948 106c 81B9      		out 33-32,r24
 2949 106e 00C0      		rjmp .L176
 2950               	.LVL167:
 2951               	.L178:
 2952               	.LM379:
 2953 1070 82B1      		in r24,34-32
 2954 1072 8095      		com r24
 2955 1074 82B9      		out 34-32,r24
 2956 1076 80E0      		ldi r24,lo8(0)
 2957 1078 90E0      		ldi r25,hi8(0)
 2958               	.LVL168:
 2959               	.L177:
 2960               	.LBB668:
 2961               	.LBB669:
 2962               	.LBB670:
 2963               	.LBB671:
 2964               	.LBB672:
 2965               	.LBB673:
 2966               	.LM380:
 2967 107a E0ED      		ldi r30,lo8(2000)
 2968 107c F7E0      		ldi r31,hi8(2000)
 2969               	/* #APP */
 2970               	 ;  105 "/usr/local/CrossPack-AVR-20100115/lib/gcc/avr/4.3.3/../../../../avr/include/util/delay_bas
 2971 107e 3197      		1: sbiw r30,1
 2972 1080 01F4      		brne 1b
 2973               	 ;  0 "" 2
 2974               	/* #NOAPP */
 2975               	.LBE673:
 2976               	.LBE672:
 2977               	.LBE671:
 2978               	.LBE670:
 2979               	.LM381:
 2980 1082 0196      		adiw r24,1
 2981 1084 883C      		cpi r24,200
 2982 1086 9105      		cpc r25,__zero_reg__
 2983 1088 01F4      		brne .L177
 2984               	.L176:
 2985               	.LBE669:
 2986               	.LBE668:
 2987               	.LBB674:
 2988               	.LBB675:
 2989               	.LM382:
 2990 108a 8091 C000 		lds r24,192
 2991               	.LVL169:
 2992               	.LBE675:
 2993               	.LBE674:
 2994               	.LM383:
 2995 108e 87FF      		sbrs r24,7
 2996 1090 00C0      		rjmp .L178
 2997               	.LM384:
 2998 1092 12B8      		out 34-32,__zero_reg__
 2999 1094 00C0      		rjmp .L283
 3000               	.LVL170:
 3001               	.L362:
 3002               	.LM385:
 3003 1096 8FEF      		ldi r24,lo8(-1)
 3004 1098 84B9      		out 36-32,r24
 3005 109a 00C0      		rjmp .L180
 3006               	.LVL171:
 3007               	.L182:
 3008               	.LM386:
 3009 109c 85B1      		in r24,37-32
 3010 109e 8095      		com r24
 3011 10a0 85B9      		out 37-32,r24
 3012 10a2 80E0      		ldi r24,lo8(0)
 3013 10a4 90E0      		ldi r25,hi8(0)
 3014               	.LVL172:
 3015               	.L181:
 3016               	.LBB676:
 3017               	.LBB677:
 3018               	.LBB678:
 3019               	.LBB679:
 3020               	.LBB680:
 3021               	.LBB681:
 3022               	.LM387:
 3023 10a6 E0ED      		ldi r30,lo8(2000)
 3024 10a8 F7E0      		ldi r31,hi8(2000)
 3025               	/* #APP */
 3026               	 ;  105 "/usr/local/CrossPack-AVR-20100115/lib/gcc/avr/4.3.3/../../../../avr/include/util/delay_bas
 3027 10aa 3197      		1: sbiw r30,1
 3028 10ac 01F4      		brne 1b
 3029               	 ;  0 "" 2
 3030               	/* #NOAPP */
 3031               	.LBE681:
 3032               	.LBE680:
 3033               	.LBE679:
 3034               	.LBE678:
 3035               	.LM388:
 3036 10ae 0196      		adiw r24,1
 3037 10b0 883C      		cpi r24,200
 3038 10b2 9105      		cpc r25,__zero_reg__
 3039 10b4 01F4      		brne .L181
 3040               	.L180:
 3041               	.LBE677:
 3042               	.LBE676:
 3043               	.LBB682:
 3044               	.LBB683:
 3045               	.LM389:
 3046 10b6 8091 C000 		lds r24,192
 3047               	.LVL173:
 3048               	.LBE683:
 3049               	.LBE682:
 3050               	.LM390:
 3051 10ba 87FF      		sbrs r24,7
 3052 10bc 00C0      		rjmp .L182
 3053               	.LM391:
 3054 10be 15B8      		out 37-32,__zero_reg__
 3055 10c0 00C0      		rjmp .L283
 3056               	.LVL174:
 3057               	.L164:
 3058               	.LM392:
 3059 10c2 8FEF      		ldi r24,lo8(-1)
 3060 10c4 87B9      		out 39-32,r24
 3061 10c6 00C0      		rjmp .L183
 3062               	.LVL175:
 3063               	.L185:
 3064               	.LM393:
 3065 10c8 88B1      		in r24,40-32
 3066 10ca 8095      		com r24
 3067 10cc 88B9      		out 40-32,r24
 3068 10ce 80E0      		ldi r24,lo8(0)
 3069 10d0 90E0      		ldi r25,hi8(0)
 3070               	.LVL176:
 3071               	.L184:
 3072               	.LBB684:
 3073               	.LBB685:
 3074               	.LBB686:
 3075               	.LBB687:
 3076               	.LBB688:
 3077               	.LBB689:
 3078               	.LM394:
 3079 10d2 E0ED      		ldi r30,lo8(2000)
 3080 10d4 F7E0      		ldi r31,hi8(2000)
 3081               	/* #APP */
 3082               	 ;  105 "/usr/local/CrossPack-AVR-20100115/lib/gcc/avr/4.3.3/../../../../avr/include/util/delay_bas
 3083 10d6 3197      		1: sbiw r30,1
 3084 10d8 01F4      		brne 1b
 3085               	 ;  0 "" 2
 3086               	/* #NOAPP */
 3087               	.LBE689:
 3088               	.LBE688:
 3089               	.LBE687:
 3090               	.LBE686:
 3091               	.LM395:
 3092 10da 0196      		adiw r24,1
 3093 10dc 883C      		cpi r24,200
 3094 10de 9105      		cpc r25,__zero_reg__
 3095 10e0 01F4      		brne .L184
 3096               	.L183:
 3097               	.LBE685:
 3098               	.LBE684:
 3099               	.LBB690:
 3100               	.LBB691:
 3101               	.LM396:
 3102 10e2 8091 C000 		lds r24,192
 3103               	.LVL177:
 3104               	.LBE691:
 3105               	.LBE690:
 3106               	.LM397:
 3107 10e6 87FF      		sbrs r24,7
 3108 10e8 00C0      		rjmp .L185
 3109               	.LM398:
 3110 10ea 18B8      		out 40-32,__zero_reg__
 3111 10ec 00C0      		rjmp .L283
 3112               	.LVL178:
 3113               	.L165:
 3114               	.LM399:
 3115 10ee 8FEF      		ldi r24,lo8(-1)
 3116 10f0 8AB9      		out 42-32,r24
 3117 10f2 00C0      		rjmp .L186
 3118               	.LVL179:
 3119               	.L188:
 3120               	.LM400:
 3121 10f4 8BB1      		in r24,43-32
 3122 10f6 8095      		com r24
 3123 10f8 8BB9      		out 43-32,r24
 3124 10fa 80E0      		ldi r24,lo8(0)
 3125 10fc 90E0      		ldi r25,hi8(0)
 3126               	.LVL180:
 3127               	.L187:
 3128               	.LBB692:
 3129               	.LBB693:
 3130               	.LBB694:
 3131               	.LBB695:
 3132               	.LBB696:
 3133               	.LBB697:
 3134               	.LM401:
 3135 10fe E0ED      		ldi r30,lo8(2000)
 3136 1100 F7E0      		ldi r31,hi8(2000)
 3137               	/* #APP */
 3138               	 ;  105 "/usr/local/CrossPack-AVR-20100115/lib/gcc/avr/4.3.3/../../../../avr/include/util/delay_bas
 3139 1102 3197      		1: sbiw r30,1
 3140 1104 01F4      		brne 1b
 3141               	 ;  0 "" 2
 3142               	/* #NOAPP */
 3143               	.LBE697:
 3144               	.LBE696:
 3145               	.LBE695:
 3146               	.LBE694:
 3147               	.LM402:
 3148 1106 0196      		adiw r24,1
 3149 1108 883C      		cpi r24,200
 3150 110a 9105      		cpc r25,__zero_reg__
 3151 110c 01F4      		brne .L187
 3152               	.L186:
 3153               	.LBE693:
 3154               	.LBE692:
 3155               	.LBB698:
 3156               	.LBB699:
 3157               	.LM403:
 3158 110e 8091 C000 		lds r24,192
 3159               	.LVL181:
 3160               	.LBE699:
 3161               	.LBE698:
 3162               	.LM404:
 3163 1112 87FF      		sbrs r24,7
 3164 1114 00C0      		rjmp .L188
 3165               	.LM405:
 3166 1116 1BB8      		out 43-32,__zero_reg__
 3167 1118 00C0      		rjmp .L283
 3168               	.LVL182:
 3169               	.L363:
 3170               	.LM406:
 3171 111a 8FEF      		ldi r24,lo8(-1)
 3172 111c 8DB9      		out 45-32,r24
 3173 111e 00C0      		rjmp .L189
 3174               	.LVL183:
 3175               	.L191:
 3176               	.LM407:
 3177 1120 8EB1      		in r24,46-32
 3178 1122 8095      		com r24
 3179 1124 8EB9      		out 46-32,r24
 3180 1126 80E0      		ldi r24,lo8(0)
 3181 1128 90E0      		ldi r25,hi8(0)
 3182               	.LVL184:
 3183               	.L190:
 3184               	.LBB700:
 3185               	.LBB701:
 3186               	.LBB702:
 3187               	.LBB703:
 3188               	.LBB704:
 3189               	.LBB705:
 3190               	.LM408:
 3191 112a E0ED      		ldi r30,lo8(2000)
 3192 112c F7E0      		ldi r31,hi8(2000)
 3193               	/* #APP */
 3194               	 ;  105 "/usr/local/CrossPack-AVR-20100115/lib/gcc/avr/4.3.3/../../../../avr/include/util/delay_bas
 3195 112e 3197      		1: sbiw r30,1
 3196 1130 01F4      		brne 1b
 3197               	 ;  0 "" 2
 3198               	/* #NOAPP */
 3199               	.LBE705:
 3200               	.LBE704:
 3201               	.LBE703:
 3202               	.LBE702:
 3203               	.LM409:
 3204 1132 0196      		adiw r24,1
 3205 1134 883C      		cpi r24,200
 3206 1136 9105      		cpc r25,__zero_reg__
 3207 1138 01F4      		brne .L190
 3208               	.L189:
 3209               	.LBE701:
 3210               	.LBE700:
 3211               	.LBB706:
 3212               	.LBB707:
 3213               	.LM410:
 3214 113a 8091 C000 		lds r24,192
 3215               	.LVL185:
 3216               	.LBE707:
 3217               	.LBE706:
 3218               	.LM411:
 3219 113e 87FF      		sbrs r24,7
 3220 1140 00C0      		rjmp .L191
 3221               	.LM412:
 3222 1142 1EB8      		out 46-32,__zero_reg__
 3223 1144 00C0      		rjmp .L283
 3224               	.LVL186:
 3225               	.L167:
 3226               	.LM413:
 3227 1146 8FEF      		ldi r24,lo8(-1)
 3228 1148 80BB      		out 48-32,r24
 3229 114a 00C0      		rjmp .L192
 3230               	.LVL187:
 3231               	.L194:
 3232               	.LM414:
 3233 114c 81B3      		in r24,49-32
 3234 114e 8095      		com r24
 3235 1150 81BB      		out 49-32,r24
 3236 1152 80E0      		ldi r24,lo8(0)
 3237 1154 90E0      		ldi r25,hi8(0)
 3238               	.LVL188:
 3239               	.L193:
 3240               	.LBB708:
 3241               	.LBB709:
 3242               	.LBB710:
 3243               	.LBB711:
 3244               	.LBB712:
 3245               	.LBB713:
 3246               	.LM415:
 3247 1156 E0ED      		ldi r30,lo8(2000)
 3248 1158 F7E0      		ldi r31,hi8(2000)
 3249               	/* #APP */
 3250               	 ;  105 "/usr/local/CrossPack-AVR-20100115/lib/gcc/avr/4.3.3/../../../../avr/include/util/delay_bas
 3251 115a 3197      		1: sbiw r30,1
 3252 115c 01F4      		brne 1b
 3253               	 ;  0 "" 2
 3254               	/* #NOAPP */
 3255               	.LBE713:
 3256               	.LBE712:
 3257               	.LBE711:
 3258               	.LBE710:
 3259               	.LM416:
 3260 115e 0196      		adiw r24,1
 3261 1160 883C      		cpi r24,200
 3262 1162 9105      		cpc r25,__zero_reg__
 3263 1164 01F4      		brne .L193
 3264               	.L192:
 3265               	.LBE709:
 3266               	.LBE708:
 3267               	.LBB714:
 3268               	.LBB715:
 3269               	.LM417:
 3270 1166 8091 C000 		lds r24,192
 3271               	.LVL189:
 3272               	.LBE715:
 3273               	.LBE714:
 3274               	.LM418:
 3275 116a 87FF      		sbrs r24,7
 3276 116c 00C0      		rjmp .L194
 3277               	.LM419:
 3278 116e 11BA      		out 49-32,__zero_reg__
 3279 1170 00C0      		rjmp .L283
 3280               	.LVL190:
 3281               	.L168:
 3282               	.LM420:
 3283 1172 8FEF      		ldi r24,lo8(-1)
 3284 1174 83BB      		out 51-32,r24
 3285 1176 00C0      		rjmp .L195
 3286               	.LVL191:
 3287               	.L197:
 3288               	.LM421:
 3289 1178 84B3      		in r24,52-32
 3290 117a 8095      		com r24
 3291 117c 84BB      		out 52-32,r24
 3292 117e 80E0      		ldi r24,lo8(0)
 3293 1180 90E0      		ldi r25,hi8(0)
 3294               	.LVL192:
 3295               	.L196:
 3296               	.LBB716:
 3297               	.LBB717:
 3298               	.LBB718:
 3299               	.LBB719:
 3300               	.LBB720:
 3301               	.LBB721:
 3302               	.LM422:
 3303 1182 E0ED      		ldi r30,lo8(2000)
 3304 1184 F7E0      		ldi r31,hi8(2000)
 3305               	/* #APP */
 3306               	 ;  105 "/usr/local/CrossPack-AVR-20100115/lib/gcc/avr/4.3.3/../../../../avr/include/util/delay_bas
 3307 1186 3197      		1: sbiw r30,1
 3308 1188 01F4      		brne 1b
 3309               	 ;  0 "" 2
 3310               	/* #NOAPP */
 3311               	.LBE721:
 3312               	.LBE720:
 3313               	.LBE719:
 3314               	.LBE718:
 3315               	.LM423:
 3316 118a 0196      		adiw r24,1
 3317 118c 883C      		cpi r24,200
 3318 118e 9105      		cpc r25,__zero_reg__
 3319 1190 01F4      		brne .L196
 3320               	.L195:
 3321               	.LBE717:
 3322               	.LBE716:
 3323               	.LBB722:
 3324               	.LBB723:
 3325               	.LM424:
 3326 1192 8091 C000 		lds r24,192
 3327               	.LVL193:
 3328               	.LBE723:
 3329               	.LBE722:
 3330               	.LM425:
 3331 1196 87FF      		sbrs r24,7
 3332 1198 00C0      		rjmp .L197
 3333               	.LM426:
 3334 119a 14BA      		out 52-32,__zero_reg__
 3335 119c 00C0      		rjmp .L283
 3336               	.LVL194:
 3337               	.L364:
 3338               	.LM427:
 3339 119e 8FEF      		ldi r24,lo8(-1)
 3340 11a0 8093 0101 		sts 257,r24
 3341 11a4 00C0      		rjmp .L198
 3342               	.LVL195:
 3343               	.L200:
 3344               	.LM428:
 3345 11a6 8091 0201 		lds r24,258
 3346 11aa 8095      		com r24
 3347 11ac 8093 0201 		sts 258,r24
 3348 11b0 80E0      		ldi r24,lo8(0)
 3349 11b2 90E0      		ldi r25,hi8(0)
 3350               	.LVL196:
 3351               	.L199:
 3352               	.LBB724:
 3353               	.LBB725:
 3354               	.LBB726:
 3355               	.LBB727:
 3356               	.LBB728:
 3357               	.LBB729:
 3358               	.LM429:
 3359 11b4 E0ED      		ldi r30,lo8(2000)
 3360 11b6 F7E0      		ldi r31,hi8(2000)
 3361               	/* #APP */
 3362               	 ;  105 "/usr/local/CrossPack-AVR-20100115/lib/gcc/avr/4.3.3/../../../../avr/include/util/delay_bas
 3363 11b8 3197      		1: sbiw r30,1
 3364 11ba 01F4      		brne 1b
 3365               	 ;  0 "" 2
 3366               	/* #NOAPP */
 3367               	.LBE729:
 3368               	.LBE728:
 3369               	.LBE727:
 3370               	.LBE726:
 3371               	.LM430:
 3372 11bc 0196      		adiw r24,1
 3373 11be 883C      		cpi r24,200
 3374 11c0 9105      		cpc r25,__zero_reg__
 3375 11c2 01F4      		brne .L199
 3376               	.L198:
 3377               	.LBE725:
 3378               	.LBE724:
 3379               	.LBB730:
 3380               	.LBB731:
 3381               	.LM431:
 3382 11c4 8091 C000 		lds r24,192
 3383               	.LVL197:
 3384               	.LBE731:
 3385               	.LBE730:
 3386               	.LM432:
 3387 11c8 87FF      		sbrs r24,7
 3388 11ca 00C0      		rjmp .L200
 3389               	.LM433:
 3390 11cc 1092 0201 		sts 258,__zero_reg__
 3391 11d0 00C0      		rjmp .L283
 3392               	.LVL198:
 3393               	.L170:
 3394               	.LM434:
 3395 11d2 8FEF      		ldi r24,lo8(-1)
 3396 11d4 8093 0401 		sts 260,r24
 3397 11d8 00C0      		rjmp .L201
 3398               	.LVL199:
 3399               	.L203:
 3400               	.LM435:
 3401 11da 8091 0501 		lds r24,261
 3402 11de 8095      		com r24
 3403 11e0 8093 0501 		sts 261,r24
 3404 11e4 80E0      		ldi r24,lo8(0)
 3405 11e6 90E0      		ldi r25,hi8(0)
 3406               	.LVL200:
 3407               	.L202:
 3408               	.LBB732:
 3409               	.LBB733:
 3410               	.LBB734:
 3411               	.LBB735:
 3412               	.LBB736:
 3413               	.LBB737:
 3414               	.LM436:
 3415 11e8 E0ED      		ldi r30,lo8(2000)
 3416 11ea F7E0      		ldi r31,hi8(2000)
 3417               	/* #APP */
 3418               	 ;  105 "/usr/local/CrossPack-AVR-20100115/lib/gcc/avr/4.3.3/../../../../avr/include/util/delay_bas
 3419 11ec 3197      		1: sbiw r30,1
 3420 11ee 01F4      		brne 1b
 3421               	 ;  0 "" 2
 3422               	/* #NOAPP */
 3423               	.LBE737:
 3424               	.LBE736:
 3425               	.LBE735:
 3426               	.LBE734:
 3427               	.LM437:
 3428 11f0 0196      		adiw r24,1
 3429 11f2 883C      		cpi r24,200
 3430 11f4 9105      		cpc r25,__zero_reg__
 3431 11f6 01F4      		brne .L202
 3432               	.L201:
 3433               	.LBE733:
 3434               	.LBE732:
 3435               	.LBB738:
 3436               	.LBB739:
 3437               	.LM438:
 3438 11f8 8091 C000 		lds r24,192
 3439               	.LVL201:
 3440               	.LBE739:
 3441               	.LBE738:
 3442               	.LM439:
 3443 11fc 87FF      		sbrs r24,7
 3444 11fe 00C0      		rjmp .L203
 3445               	.LM440:
 3446 1200 1092 0501 		sts 261,__zero_reg__
 3447 1204 00C0      		rjmp .L283
 3448               	.LVL202:
 3449               	.L171:
 3450               	.LM441:
 3451 1206 8FEF      		ldi r24,lo8(-1)
 3452 1208 8093 0701 		sts 263,r24
 3453 120c 00C0      		rjmp .L204
 3454               	.LVL203:
 3455               	.L206:
 3456               	.LM442:
 3457 120e 8091 0801 		lds r24,264
 3458 1212 8095      		com r24
 3459 1214 8093 0801 		sts 264,r24
 3460 1218 80E0      		ldi r24,lo8(0)
 3461 121a 90E0      		ldi r25,hi8(0)
 3462               	.LVL204:
 3463               	.L205:
 3464               	.LBB740:
 3465               	.LBB741:
 3466               	.LBB742:
 3467               	.LBB743:
 3468               	.LBB744:
 3469               	.LBB745:
 3470               	.LM443:
 3471 121c E0ED      		ldi r30,lo8(2000)
 3472 121e F7E0      		ldi r31,hi8(2000)
 3473               	/* #APP */
 3474               	 ;  105 "/usr/local/CrossPack-AVR-20100115/lib/gcc/avr/4.3.3/../../../../avr/include/util/delay_bas
 3475 1220 3197      		1: sbiw r30,1
 3476 1222 01F4      		brne 1b
 3477               	 ;  0 "" 2
 3478               	/* #NOAPP */
 3479               	.LBE745:
 3480               	.LBE744:
 3481               	.LBE743:
 3482               	.LBE742:
 3483               	.LM444:
 3484 1224 0196      		adiw r24,1
 3485 1226 883C      		cpi r24,200
 3486 1228 9105      		cpc r25,__zero_reg__
 3487 122a 01F4      		brne .L205
 3488               	.L204:
 3489               	.LBE741:
 3490               	.LBE740:
 3491               	.LBB746:
 3492               	.LBB747:
 3493               	.LM445:
 3494 122c 8091 C000 		lds r24,192
 3495               	.LVL205:
 3496               	.LBE747:
 3497               	.LBE746:
 3498               	.LM446:
 3499 1230 87FF      		sbrs r24,7
 3500 1232 00C0      		rjmp .L206
 3501               	.LM447:
 3502 1234 1092 0801 		sts 264,__zero_reg__
 3503 1238 00C0      		rjmp .L283
 3504               	.LVL206:
 3505               	.L365:
 3506               	.LM448:
 3507 123a 8FEF      		ldi r24,lo8(-1)
 3508 123c 8093 0A01 		sts 266,r24
 3509 1240 00C0      		rjmp .L207
 3510               	.LVL207:
 3511               	.L209:
 3512               	.LM449:
 3513 1242 8091 0B01 		lds r24,267
 3514 1246 8095      		com r24
 3515 1248 8093 0B01 		sts 267,r24
 3516 124c 80E0      		ldi r24,lo8(0)
 3517 124e 90E0      		ldi r25,hi8(0)
 3518               	.LVL208:
 3519               	.L208:
 3520               	.LBB748:
 3521               	.LBB749:
 3522               	.LBB750:
 3523               	.LBB751:
 3524               	.LBB752:
 3525               	.LBB753:
 3526               	.LM450:
 3527 1250 E0ED      		ldi r30,lo8(2000)
 3528 1252 F7E0      		ldi r31,hi8(2000)
 3529               	/* #APP */
 3530               	 ;  105 "/usr/local/CrossPack-AVR-20100115/lib/gcc/avr/4.3.3/../../../../avr/include/util/delay_bas
 3531 1254 3197      		1: sbiw r30,1
 3532 1256 01F4      		brne 1b
 3533               	 ;  0 "" 2
 3534               	/* #NOAPP */
 3535               	.LBE753:
 3536               	.LBE752:
 3537               	.LBE751:
 3538               	.LBE750:
 3539               	.LM451:
 3540 1258 0196      		adiw r24,1
 3541 125a 883C      		cpi r24,200
 3542 125c 9105      		cpc r25,__zero_reg__
 3543 125e 01F4      		brne .L208
 3544               	.L207:
 3545               	.LBE749:
 3546               	.LBE748:
 3547               	.LBB754:
 3548               	.LBB755:
 3549               	.LM452:
 3550 1260 8091 C000 		lds r24,192
 3551               	.LVL209:
 3552               	.LBE755:
 3553               	.LBE754:
 3554               	.LM453:
 3555 1264 87FF      		sbrs r24,7
 3556 1266 00C0      		rjmp .L209
 3557               	.LM454:
 3558 1268 1092 0B01 		sts 267,__zero_reg__
 3559 126c 00C0      		rjmp .L283
 3560               	.LVL210:
 3561               	.L161:
 3562               	.LM455:
 3563 126e 80E0      		ldi r24,lo8(gTextMsg_PortNotSupported)
 3564 1270 90E0      		ldi r25,hi8(gTextMsg_PortNotSupported)
 3565 1272 00C0      		rjmp .L350
 3566               	.LVL211:
 3567               	.L283:
 3568               	.LBB756:
 3569               	.LBB757:
 3570               	.LM456:
 3571 1274 8091 C000 		lds r24,192
 3572 1278 87FF      		sbrs r24,7
 3573 127a 00C0      		rjmp .L283
 3574               	.LVL212:
 3575               	.L352:
 3576               	.LM457:
 3577 127c 8091 C600 		lds r24,198
 3578 1280 00C0      		rjmp .L344
 3579               	.LVL213:
 3580               	.L160:
 3581               	.LBE757:
 3582               	.LBE756:
 3583               	.LM458:
 3584 1282 80E0      		ldi r24,lo8(gTextMsg_MustBeLetter)
 3585 1284 90E0      		ldi r25,hi8(gTextMsg_MustBeLetter)
 3586 1286 00C0      		rjmp .L350
 3587               	.LVL214:
 3588               	.L103:
 3589               	.LBE663:
 3590               	.LBE662:
 3591               	.LM459:
 3592 1288 80E0      		ldi r24,lo8(gTextMsg_HUH)
 3593 128a 90E0      		ldi r25,hi8(gTextMsg_HUH)
 3594 128c 00C0      		rjmp .L350
 3595               	.LVL215:
 3596               	.L92:
 3597 128e AA24      		clr r10
 3598 1290 BB24      		clr r11
 3599               	.LVL216:
 3600               	.L93:
 3601               	.LBE579:
 3602               	.LBE578:
 3603               	.LM460:
 3604 1292 9330      		cpi r25,lo8(3)
 3605 1294 01F0      		breq .L214
 3606 1296 9430      		cpi r25,lo8(4)
 3607 1298 00F4      		brsh .L218
 3608 129a 9130      		cpi r25,lo8(1)
 3609 129c 01F0      		breq .L212
 3610 129e 9230      		cpi r25,lo8(2)
 3611 12a0 00F4      		brsh .L213
 3612 12a2 00C0      		rjmp .L366
 3613               	.L218:
 3614 12a4 9530      		cpi r25,lo8(5)
 3615 12a6 01F0      		breq .L216
 3616 12a8 9530      		cpi r25,lo8(5)
 3617 12aa 00F0      		brlo .L215
 3618 12ac 9630      		cpi r25,lo8(6)
 3619 12ae 01F0      		breq .+2
 3620 12b0 00C0      		rjmp .L347
 3621 12b2 00C0      		rjmp .L367
 3622               	.L366:
 3623               	.LM461:
 3624 12b4 2B31      		cpi r18,lo8(27)
 3625 12b6 01F0      		breq .+2
 3626 12b8 00C0      		rjmp .L345
 3627 12ba 91E0      		ldi r25,lo8(1)
 3628 12bc 6BE1      		ldi r22,lo8(27)
 3629 12be 00C0      		rjmp .L345
 3630               	.L212:
 3631               	.LM462:
 3632 12c0 2130      		cpi r18,lo8(1)
 3633 12c2 01F0      		breq .L220
 3634 12c4 C15D      		subi r28,lo8(-303)
 3635 12c6 DE4F      		sbci r29,hi8(-303)
 3636 12c8 5881      		ld r21,Y
 3637 12ca CF52      		subi r28,lo8(303)
 3638 12cc D140      		sbci r29,hi8(303)
 3639 12ce 2517      		cp r18,r21
 3640 12d0 01F0      		breq .+2
 3641 12d2 00C0      		rjmp .L221
 3642               	.L220:
 3643               	.LM463:
 3644 12d4 6227      		eor r22,r18
 3645 12d6 C15D      		subi r28,lo8(-303)
 3646 12d8 DE4F      		sbci r29,hi8(-303)
 3647 12da 2883      		st Y,r18
 3648 12dc CF52      		subi r28,lo8(303)
 3649 12de D140      		sbci r29,hi8(303)
 3650               	.LVL217:
 3651 12e0 92E0      		ldi r25,lo8(2)
 3652 12e2 00C0      		rjmp .L345
 3653               	.L213:
 3654               	.LM464:
 3655 12e4 B22F      		mov r27,r18
 3656 12e6 A0E0      		ldi r26,lo8(0)
 3657               	.LVL218:
 3658               	.LM465:
 3659 12e8 6227      		eor r22,r18
 3660 12ea 93E0      		ldi r25,lo8(3)
 3661 12ec 00C0      		rjmp .L345
 3662               	.LVL219:
 3663               	.L214:
 3664               	.LM466:
 3665 12ee 822F      		mov r24,r18
 3666 12f0 90E0      		ldi r25,lo8(0)
 3667               	.LVL220:
 3668 12f2 A82B      		or r26,r24
 3669 12f4 B92B      		or r27,r25
 3670               	.LM467:
 3671 12f6 6227      		eor r22,r18
 3672 12f8 94E0      		ldi r25,lo8(4)
 3673               	.LVL221:
 3674 12fa 00C0      		rjmp .L345
 3675               	.LVL222:
 3676               	.L215:
 3677               	.LM468:
 3678 12fc 2E30      		cpi r18,lo8(14)
 3679 12fe 01F0      		breq .+2
 3680 1300 00C0      		rjmp .L221
 3681               	.LM469:
 3682 1302 6227      		eor r22,r18
 3683 1304 95E0      		ldi r25,lo8(5)
 3684 1306 C05D      		subi r28,lo8(-304)
 3685 1308 DE4F      		sbci r29,hi8(-304)
 3686 130a 1982      		std Y+1,__zero_reg__
 3687 130c 1882      		st Y,__zero_reg__
 3688 130e C053      		subi r28,lo8(304)
 3689 1310 D140      		sbci r29,hi8(304)
 3690               	.LVL223:
 3691 1312 00C0      		rjmp .L345
 3692               	.L216:
 3693               	.LM470:
 3694 1314 E1E0      		ldi r30,lo8(1)
 3695 1316 F0E0      		ldi r31,hi8(1)
 3696 1318 EC0F      		add r30,r28
 3697 131a FD1F      		adc r31,r29
 3698 131c C05D      		subi r28,lo8(-304)
 3699 131e DE4F      		sbci r29,hi8(-304)
 3700 1320 E880      		ld r14,Y
 3701 1322 F980      		ldd r15,Y+1
 3702 1324 C053      		subi r28,lo8(304)
 3703 1326 D140      		sbci r29,hi8(304)
 3704               	.LVL224:
 3705 1328 EE0D      		add r30,r14
 3706 132a FF1D      		adc r31,r15
 3707 132c 2083      		st Z,r18
 3708 132e 8701      		movw r16,r14
 3709 1330 0F5F      		subi r16,lo8(-(1))
 3710 1332 1F4F      		sbci r17,hi8(-(1))
 3711 1334 C05D      		subi r28,lo8(-304)
 3712 1336 DE4F      		sbci r29,hi8(-304)
 3713 1338 1983      		std Y+1,r17
 3714 133a 0883      		st Y,r16
 3715 133c C053      		subi r28,lo8(304)
 3716 133e D140      		sbci r29,hi8(304)
 3717               	.LVL225:
 3718               	.LM471:
 3719 1340 6227      		eor r22,r18
 3720               	.LM472:
 3721 1342 0A17      		cp r16,r26
 3722 1344 1B07      		cpc r17,r27
 3723 1346 01F0      		breq .+2
 3724 1348 00C0      		rjmp .L345
 3725 134a D801      		movw r26,r16
 3726 134c 96E0      		ldi r25,lo8(6)
 3727 134e 00C0      		rjmp .L345
 3728               	.LVL226:
 3729               	.L367:
 3730               	.LM473:
 3731 1350 2617      		cp r18,r22
 3732 1352 01F0      		breq .+2
 3733 1354 00C0      		rjmp .L221
 3734 1356 00C0      		rjmp .L222
 3735               	.L347:
 3736               	.LM474:
 3737 1358 9730      		cpi r25,lo8(7)
 3738 135a 01F0      		breq .+2
 3739 135c 00C0      		rjmp .L345
 3740               	.L222:
 3741 135e 9924      		clr r9
 3742               	.LVL227:
 3743               	.L138:
 3744               	.LM475:
 3745 1360 8981      		ldd r24,Y+1
 3746 1362 8331      		cpi r24,lo8(19)
 3747 1364 01F4      		brne .+2
 3748 1366 00C0      		rjmp .L230
 3749 1368 8431      		cpi r24,lo8(20)
 3750 136a 00F4      		brsh .L237
 3751 136c 8630      		cpi r24,lo8(6)
 3752 136e 01F4      		brne .+2
 3753 1370 00C0      		rjmp .L227
 3754 1372 8730      		cpi r24,lo8(7)
 3755 1374 00F4      		brsh .L238
 3756 1376 8230      		cpi r24,lo8(2)
 3757 1378 01F4      		brne .+2
 3758 137a 00C0      		rjmp .L357
 3759 137c 8330      		cpi r24,lo8(3)
 3760 137e 01F4      		brne .+2
 3761 1380 00C0      		rjmp .L226
 3762 1382 8130      		cpi r24,lo8(1)
 3763 1384 01F0      		breq .+2
 3764 1386 00C0      		rjmp .L223
 3765 1388 00C0      		rjmp .L368
 3766               	.L238:
 3767 138a 8131      		cpi r24,lo8(17)
 3768 138c 01F4      		brne .+2
 3769 138e 00C0      		rjmp .L228
 3770 1390 8231      		cpi r24,lo8(18)
 3771 1392 00F0      		brlo .+2
 3772 1394 00C0      		rjmp .L229
 3773 1396 8031      		cpi r24,lo8(16)
 3774 1398 01F0      		breq .+2
 3775 139a 00C0      		rjmp .L223
 3776 139c 00C0      		rjmp .L357
 3777               	.L237:
 3778 139e 8831      		cpi r24,lo8(24)
 3779 13a0 01F4      		brne .+2
 3780 13a2 00C0      		rjmp .L232
 3781 13a4 8931      		cpi r24,lo8(25)
 3782 13a6 00F4      		brsh .L239
 3783 13a8 8531      		cpi r24,lo8(21)
 3784 13aa 01F4      		brne .+2
 3785 13ac 00C0      		rjmp .L230
 3786 13ae 8531      		cpi r24,lo8(21)
 3787 13b0 00F4      		brsh .+2
 3788 13b2 00C0      		rjmp .L231
 3789 13b4 8631      		cpi r24,lo8(22)
 3790 13b6 01F0      		breq .+2
 3791 13b8 00C0      		rjmp .L223
 3792 13ba 00C0      		rjmp .L231
 3793               	.L239:
 3794 13bc 8A31      		cpi r24,lo8(26)
 3795 13be 01F4      		brne .+2
 3796 13c0 00C0      		rjmp .L234
 3797 13c2 8A31      		cpi r24,lo8(26)
 3798 13c4 00F4      		brsh .+2
 3799 13c6 00C0      		rjmp .L233
 3800 13c8 8B31      		cpi r24,lo8(27)
 3801 13ca 01F4      		brne .+2
 3802 13cc 00C0      		rjmp .L235
 3803 13ce 8D31      		cpi r24,lo8(29)
 3804 13d0 01F0      		breq .+2
 3805 13d2 00C0      		rjmp .L223
 3806               	.LBB758:
 3807               	.LM476:
 3808 13d4 8D81      		ldd r24,Y+5
 3809 13d6 8033      		cpi r24,lo8(48)
 3810 13d8 01F0      		breq .L240
 3811 13da 90E0      		ldi r25,lo8(0)
 3812               	.LVL228:
 3813 13dc 00C0      		rjmp .L241
 3814               	.LVL229:
 3815               	.L240:
 3816               	.LBB759:
 3817               	.LM477:
 3818 13de 8F81      		ldd r24,Y+7
 3819               	.LVL230:
 3820               	.LM478:
 3821 13e0 8823      		tst r24
 3822 13e2 01F4      		brne .L242
 3823 13e4 9EE1      		ldi r25,lo8(30)
 3824               	.LVL231:
 3825 13e6 00C0      		rjmp .L241
 3826               	.LVL232:
 3827               	.L242:
 3828               	.LM479:
 3829 13e8 8130      		cpi r24,lo8(1)
 3830 13ea 01F0      		breq .L243
 3831 13ec 91E0      		ldi r25,lo8(1)
 3832               	.LVL233:
 3833 13ee 00C0      		rjmp .L241
 3834               	.LVL234:
 3835               	.L243:
 3836 13f0 98E9      		ldi r25,lo8(-104)
 3837               	.LVL235:
 3838               	.L241:
 3839               	.LBE759:
 3840               	.LM480:
 3841 13f2 1A82      		std Y+2,__zero_reg__
 3842               	.LM481:
 3843 13f4 1B82      		std Y+3,__zero_reg__
 3844               	.LM482:
 3845 13f6 8D81      		ldd r24,Y+5
 3846               	.LVL236:
 3847 13f8 8C83      		std Y+4,r24
 3848               	.LM483:
 3849 13fa 1D82      		std Y+5,__zero_reg__
 3850               	.LM484:
 3851 13fc 9E83      		std Y+6,r25
 3852               	.LM485:
 3853 13fe 1F82      		std Y+7,__zero_reg__
 3854 1400 27E0      		ldi r18,lo8(7)
 3855 1402 30E0      		ldi r19,hi8(7)
 3856               	.LVL237:
 3857 1404 00C0      		rjmp .L244
 3858               	.LVL238:
 3859               	.L368:
 3860               	.LBE758:
 3861               	.LM486:
 3862 1406 1A82      		std Y+2,__zero_reg__
 3863               	.LM487:
 3864 1408 88E0      		ldi r24,lo8(8)
 3865 140a 8B83      		std Y+3,r24
 3866               	.LM488:
 3867 140c 81E4      		ldi r24,lo8(65)
 3868 140e 8C83      		std Y+4,r24
 3869               	.LM489:
 3870 1410 86E5      		ldi r24,lo8(86)
 3871 1412 8D83      		std Y+5,r24
 3872               	.LM490:
 3873 1414 82E5      		ldi r24,lo8(82)
 3874 1416 8E83      		std Y+6,r24
 3875               	.LM491:
 3876 1418 89E4      		ldi r24,lo8(73)
 3877 141a 8F83      		std Y+7,r24
 3878               	.LM492:
 3879 141c 83E5      		ldi r24,lo8(83)
 3880 141e 8887      		std Y+8,r24
 3881               	.LM493:
 3882 1420 80E5      		ldi r24,lo8(80)
 3883 1422 8987      		std Y+9,r24
 3884               	.LM494:
 3885 1424 8FE5      		ldi r24,lo8(95)
 3886 1426 8A87      		std Y+10,r24
 3887               	.LM495:
 3888 1428 82E3      		ldi r24,lo8(50)
 3889 142a 8B87      		std Y+11,r24
 3890 142c 2BE0      		ldi r18,lo8(11)
 3891 142e 30E0      		ldi r19,hi8(11)
 3892               	.LVL239:
 3893 1430 00C0      		rjmp .L244
 3894               	.LVL240:
 3895               	.L226:
 3896               	.LBB760:
 3897               	.LM496:
 3898 1432 8A81      		ldd r24,Y+2
 3899 1434 8139      		cpi r24,lo8(-111)
 3900 1436 01F0      		breq .L247
 3901 1438 8239      		cpi r24,lo8(-110)
 3902 143a 01F0      		breq .L248
 3903 143c 8039      		cpi r24,lo8(-112)
 3904 143e 01F4      		brne .L348
 3905 1440 8FE0      		ldi r24,lo8(15)
 3906               	.LVL241:
 3907 1442 00C0      		rjmp .L249
 3908               	.LVL242:
 3909               	.L348:
 3910 1444 80E0      		ldi r24,lo8(0)
 3911               	.LVL243:
 3912 1446 00C0      		rjmp .L249
 3913               	.LVL244:
 3914               	.L247:
 3915 1448 82E0      		ldi r24,lo8(2)
 3916               	.LVL245:
 3917 144a 00C0      		rjmp .L249
 3918               	.LVL246:
 3919               	.L248:
 3920               	.LM497:
 3921 144c 8AE0      		ldi r24,lo8(10)
 3922               	.LVL247:
 3923               	.L249:
 3924               	.LM498:
 3925 144e 1A82      		std Y+2,__zero_reg__
 3926               	.LM499:
 3927 1450 8B83      		std Y+3,r24
 3928 1452 00C0      		rjmp .L354
 3929               	.LVL248:
 3930               	.L228:
 3931               	.LM500:
 3932 1454 9924      		clr r9
 3933 1456 9394      		inc r9
 3934 1458 00C0      		rjmp .L357
 3935               	.L235:
 3936               	.LBE760:
 3937               	.LBB761:
 3938               	.LM501:
 3939 145a 8D81      		ldd r24,Y+5
 3940               	.LVL249:
 3941               	.LM502:
 3942 145c 8823      		tst r24
 3943 145e 01F4      		brne .L250
 3944 1460 8EE1      		ldi r24,lo8(30)
 3945               	.LVL250:
 3946 1462 00C0      		rjmp .L255
 3947               	.LVL251:
 3948               	.L250:
 3949               	.LM503:
 3950 1464 8130      		cpi r24,lo8(1)
 3951 1466 01F0      		breq .L252
 3952 1468 81E0      		ldi r24,lo8(1)
 3953               	.LVL252:
 3954 146a 00C0      		rjmp .L255
 3955               	.LVL253:
 3956               	.L252:
 3957 146c 88E9      		ldi r24,lo8(-104)
 3958               	.LVL254:
 3959 146e 00C0      		rjmp .L255
 3960               	.LVL255:
 3961               	.L234:
 3962               	.LBE761:
 3963               	.LM504:
 3964 1470 1A82      		std Y+2,__zero_reg__
 3965               	.LBB762:
 3966               	.LM505:
 3967 1472 E1E0      		ldi r30,lo8(1)
 3968 1474 F0E0      		ldi r31,hi8(1)
 3969 1476 89E0      		ldi r24,lo8(9)
 3970               	/* #APP */
 3971               	 ;  808 "stk500boot.c" 1
 3972 1478 8093 5700 		sts 87, r24
 3973 147c 8491      		lpm r24, Z
 3974               		
 3975               	 ;  0 "" 2
 3976               	.LVL256:
 3977               	/* #NOAPP */
 3978               	.L356:
 3979               	.LBE762:
 3980 147e 8B83      		std Y+3,r24
 3981               	.LM506:
 3982 1480 1C82      		std Y+4,__zero_reg__
 3983 1482 24E0      		ldi r18,lo8(4)
 3984 1484 30E0      		ldi r19,hi8(4)
 3985               	.LVL257:
 3986 1486 00C0      		rjmp .L244
 3987               	.LVL258:
 3988               	.L232:
 3989               	.LBB763:
 3990               	.LM507:
 3991 1488 8B81      		ldd r24,Y+3
 3992 148a 8035      		cpi r24,lo8(80)
 3993 148c 01F4      		brne .L253
 3994               	.LM508:
 3995 148e 8C81      		ldd r24,Y+4
 3996 1490 8830      		cpi r24,lo8(8)
 3997 1492 01F4      		brne .L254
 3998               	.LBB764:
 3999               	.LM509:
 4000 1494 E2E0      		ldi r30,lo8(2)
 4001 1496 F0E0      		ldi r31,hi8(2)
 4002 1498 89E0      		ldi r24,lo8(9)
 4003               	/* #APP */
 4004               	 ;  819 "stk500boot.c" 1
 4005 149a 8093 5700 		sts 87, r24
 4006 149e 8491      		lpm r24, Z
 4007               		
 4008               	 ;  0 "" 2
 4009               	.LVL259:
 4010               	/* #NOAPP */
 4011 14a0 00C0      		rjmp .L255
 4012               	.LVL260:
 4013               	.L254:
 4014               	.LBE764:
 4015               	.LBB765:
 4016               	.LM510:
 4017 14a2 E0E0      		ldi r30,lo8(0)
 4018 14a4 F0E0      		ldi r31,hi8(0)
 4019 14a6 89E0      		ldi r24,lo8(9)
 4020               	/* #APP */
 4021               	 ;  821 "stk500boot.c" 1
 4022 14a8 8093 5700 		sts 87, r24
 4023 14ac 8491      		lpm r24, Z
 4024               		
 4025               	 ;  0 "" 2
 4026               	.LVL261:
 4027               	/* #NOAPP */
 4028 14ae 00C0      		rjmp .L255
 4029               	.LVL262:
 4030               	.L253:
 4031               	.LBE765:
 4032               	.LBB766:
 4033               	.LM511:
 4034 14b0 E3E0      		ldi r30,lo8(3)
 4035 14b2 F0E0      		ldi r31,hi8(3)
 4036 14b4 89E0      		ldi r24,lo8(9)
 4037               	/* #APP */
 4038               	 ;  825 "stk500boot.c" 1
 4039 14b6 8093 5700 		sts 87, r24
 4040 14ba 8491      		lpm r24, Z
 4041               		
 4042               	 ;  0 "" 2
 4043               	.LVL263:
 4044               	/* #NOAPP */
 4045               	.L255:
 4046               	.LBE766:
 4047               	.LM512:
 4048 14bc 1A82      		std Y+2,__zero_reg__
 4049 14be 00C0      		rjmp .L356
 4050               	.LVL264:
 4051               	.L233:
 4052               	.LBE763:
 4053               	.LBB767:
 4054               	.LM513:
 4055 14c0 8D81      		ldd r24,Y+5
 4056               	.LBB768:
 4057               	.LM514:
 4058 14c2 836C      		ori r24,lo8(-61)
 4059 14c4 99E0      		ldi r25,lo8(9)
 4060               	.LVL265:
 4061               	/* #APP */
 4062               	 ;  840 "stk500boot.c" 1
 4063 14c6 E1E0      		ldi r30, 1
 4064 14c8 F0E0      		ldi r31, 0
 4065 14ca 082E      		mov r0, r24
 4066 14cc 9093 5700 		sts 87, r25
 4067 14d0 E895      		spm
 4068               		
 4069               	 ;  0 "" 2
 4070               	/* #NOAPP */
 4071               	.L256:
 4072               	.LBE768:
 4073               	.LM515:
 4074 14d2 07B6      		in __tmp_reg__,87-32
 4075 14d4 00FC      		sbrc __tmp_reg__,0
 4076 14d6 00C0      		rjmp .L256
 4077               	.LM516:
 4078 14d8 1A82      		std Y+2,__zero_reg__
 4079               	.LM517:
 4080 14da 1B82      		std Y+3,__zero_reg__
 4081               	.LVL266:
 4082               	.L354:
 4083 14dc 23E0      		ldi r18,lo8(3)
 4084 14de 30E0      		ldi r19,hi8(3)
 4085               	.LVL267:
 4086 14e0 00C0      		rjmp .L244
 4087               	.LVL268:
 4088               	.L229:
 4089               	.LBE767:
 4090               	.LM518:
 4091 14e2 1A82      		std Y+2,__zero_reg__
 4092 14e4 CE5C      		subi r28,lo8(-306)
 4093 14e6 DE4F      		sbci r29,hi8(-306)
 4094 14e8 1882      		st Y,__zero_reg__
 4095 14ea 1982      		std Y+1,__zero_reg__
 4096 14ec 1A82      		std Y+2,__zero_reg__
 4097 14ee 1B82      		std Y+3,__zero_reg__
 4098 14f0 C253      		subi r28,lo8(306)
 4099 14f2 D140      		sbci r29,hi8(306)
 4100               	.LVL269:
 4101 14f4 00C0      		rjmp .L355
 4102               	.L227:
 4103               	.LM519:
 4104 14f6 8A81      		ldd r24,Y+2
 4105 14f8 90E0      		ldi r25,lo8(0)
 4106               	.LVL270:
 4107 14fa A0E0      		ldi r26,lo8(0)
 4108 14fc B0E0      		ldi r27,hi8(0)
 4109               	.LVL271:
 4110 14fe 582F      		mov r21,r24
 4111 1500 4427      		clr r20
 4112 1502 3327      		clr r19
 4113 1504 2227      		clr r18
 4114               	.LVL272:
 4115 1506 8B81      		ldd r24,Y+3
 4116 1508 90E0      		ldi r25,lo8(0)
 4117 150a A0E0      		ldi r26,lo8(0)
 4118 150c B0E0      		ldi r27,hi8(0)
 4119 150e DC01      		movw r26,r24
 4120 1510 9927      		clr r25
 4121 1512 8827      		clr r24
 4122               	.LVL273:
 4123 1514 282B      		or r18,r24
 4124 1516 392B      		or r19,r25
 4125 1518 4A2B      		or r20,r26
 4126 151a 5B2B      		or r21,r27
 4127 151c 8D81      		ldd r24,Y+5
 4128 151e 90E0      		ldi r25,lo8(0)
 4129 1520 A0E0      		ldi r26,lo8(0)
 4130 1522 B0E0      		ldi r27,hi8(0)
 4131 1524 282B      		or r18,r24
 4132 1526 392B      		or r19,r25
 4133 1528 4A2B      		or r20,r26
 4134 152a 5B2B      		or r21,r27
 4135 152c 8C81      		ldd r24,Y+4
 4136 152e 90E0      		ldi r25,lo8(0)
 4137 1530 A0E0      		ldi r26,lo8(0)
 4138 1532 B0E0      		ldi r27,hi8(0)
 4139 1534 BA2F      		mov r27,r26
 4140 1536 A92F      		mov r26,r25
 4141 1538 982F      		mov r25,r24
 4142 153a 8827      		clr r24
 4143               	.LVL274:
 4144 153c 282B      		or r18,r24
 4145 153e 392B      		or r19,r25
 4146 1540 4A2B      		or r20,r26
 4147 1542 5B2B      		or r21,r27
 4148 1544 220F      		lsl r18
 4149 1546 331F      		rol r19
 4150 1548 441F      		rol r20
 4151 154a 551F      		rol r21
 4152 154c C05E      		subi r28,lo8(-288)
 4153 154e DE4F      		sbci r29,hi8(-288)
 4154 1550 2883      		st Y,r18
 4155 1552 3983      		std Y+1,r19
 4156 1554 4A83      		std Y+2,r20
 4157 1556 5B83      		std Y+3,r21
 4158 1558 C052      		subi r28,lo8(288)
 4159 155a D140      		sbci r29,hi8(288)
 4160               	.LVL275:
 4161               	.L357:
 4162               	.LM520:
 4163 155c 1A82      		std Y+2,__zero_reg__
 4164 155e 00C0      		rjmp .L355
 4165               	.L230:
 4166               	.LBB769:
 4167               	.LM521:
 4168 1560 9A81      		ldd r25,Y+2
 4169               	.LVL276:
 4170 1562 2B81      		ldd r18,Y+3
 4171               	.LVL277:
 4172               	.LM522:
 4173 1564 8331      		cpi r24,lo8(19)
 4174 1566 01F0      		breq .L257
 4175 1568 C05E      		subi r28,lo8(-288)
 4176 156a DE4F      		sbci r29,hi8(-288)
 4177 156c 4881      		ld r20,Y
 4178 156e 5981      		ldd r21,Y+1
 4179 1570 6A81      		ldd r22,Y+2
 4180 1572 7B81      		ldd r23,Y+3
 4181 1574 C052      		subi r28,lo8(288)
 4182 1576 D140      		sbci r29,hi8(288)
 4183 1578 00C0      		rjmp .L258
 4184               	.LVL278:
 4185               	.L257:
 4186               	.LM523:
 4187 157a CE5C      		subi r28,lo8(-306)
 4188 157c DE4F      		sbci r29,hi8(-306)
 4189 157e 4881      		ld r20,Y
 4190 1580 5981      		ldd r21,Y+1
 4191 1582 6A81      		ldd r22,Y+2
 4192 1584 7B81      		ldd r23,Y+3
 4193 1586 C253      		subi r28,lo8(306)
 4194 1588 D140      		sbci r29,hi8(306)
 4195 158a 4030      		cpi r20,lo8(245760)
 4196 158c 80EC      		ldi r24,hi8(245760)
 4197 158e 5807      		cpc r21,r24
 4198 1590 83E0      		ldi r24,hlo8(245760)
 4199 1592 6807      		cpc r22,r24
 4200 1594 80E0      		ldi r24,hhi8(245760)
 4201 1596 7807      		cpc r23,r24
 4202 1598 00F4      		brsh .L259
 4203               	.LM524:
 4204 159a 83E0      		ldi r24,lo8(3)
 4205               	/* #APP */
 4206               	 ;  880 "stk500boot.c" 1
 4207 159c FA01      		movw r30, r20
 4208 159e 6093 5B00 		sts  91, r22
 4209 15a2 8093 5700 		sts 87, r24
 4210 15a6 E895      		spm
 4211               		
 4212               	 ;  0 "" 2
 4213               	/* #NOAPP */
 4214               	.L260:
 4215               	.LM525:
 4216 15a8 07B6      		in __tmp_reg__,87-32
 4217 15aa 00FC      		sbrc __tmp_reg__,0
 4218 15ac 00C0      		rjmp .L260
 4219               	.LM526:
 4220 15ae CE5C      		subi r28,lo8(-306)
 4221 15b0 DE4F      		sbci r29,hi8(-306)
 4222 15b2 4881      		ld r20,Y
 4223 15b4 5981      		ldd r21,Y+1
 4224 15b6 6A81      		ldd r22,Y+2
 4225 15b8 7B81      		ldd r23,Y+3
 4226 15ba C253      		subi r28,lo8(306)
 4227 15bc D140      		sbci r29,hi8(306)
 4228 15be 4050      		subi r20,lo8(-(256))
 4229 15c0 5F4F      		sbci r21,hi8(-(256))
 4230 15c2 6F4F      		sbci r22,hlo8(-(256))
 4231 15c4 7F4F      		sbci r23,hhi8(-(256))
 4232 15c6 CE5C      		subi r28,lo8(-306)
 4233 15c8 DE4F      		sbci r29,hi8(-306)
 4234 15ca 4883      		st Y,r20
 4235 15cc 5983      		std Y+1,r21
 4236 15ce 6A83      		std Y+2,r22
 4237 15d0 7B83      		std Y+3,r23
 4238 15d2 C253      		subi r28,lo8(306)
 4239 15d4 D140      		sbci r29,hi8(306)
 4240               	.LVL279:
 4241               	.L259:
 4242               	.LM527:
 4243 15d6 C95C      		subi r28,lo8(-311)
 4244 15d8 DE4F      		sbci r29,hi8(-311)
 4245 15da 9883      		st Y,r25
 4246 15dc C753      		subi r28,lo8(311)
 4247 15de D140      		sbci r29,hi8(311)
 4248 15e0 CA5C      		subi r28,lo8(-310)
 4249 15e2 DE4F      		sbci r29,hi8(-310)
 4250 15e4 1882      		st Y,__zero_reg__
 4251 15e6 C653      		subi r28,lo8(310)
 4252 15e8 D140      		sbci r29,hi8(310)
 4253 15ea 022F      		mov r16,r18
 4254               	.LVL280:
 4255 15ec 10E0      		ldi r17,lo8(0)
 4256               	.LVL281:
 4257 15ee CA5C      		subi r28,lo8(-310)
 4258 15f0 DE4F      		sbci r29,hi8(-310)
 4259 15f2 6881      		ld r22,Y
 4260 15f4 7981      		ldd r23,Y+1
 4261 15f6 C653      		subi r28,lo8(310)
 4262 15f8 D140      		sbci r29,hi8(310)
 4263               	.LVL282:
 4264 15fa 062B      		or r16,r22
 4265 15fc 172B      		or r17,r23
 4266               	.LVL283:
 4267 15fe C05E      		subi r28,lo8(-288)
 4268 1600 DE4F      		sbci r29,hi8(-288)
 4269 1602 4881      		ld r20,Y
 4270 1604 5981      		ldd r21,Y+1
 4271 1606 6A81      		ldd r22,Y+2
 4272 1608 7B81      		ldd r23,Y+3
 4273 160a C052      		subi r28,lo8(288)
 4274 160c D140      		sbci r29,hi8(288)
 4275 160e DE01      		movw r26,r28
 4276               	.LVL284:
 4277 1610 1B96      		adiw r26,11
 4278               	.LM528:
 4279 1612 31E0      		ldi r19,lo8(1)
 4280               	.LVL285:
 4281               	.L261:
 4282               	.LM529:
 4283 1614 8C91      		ld r24,X
 4284               	.LVL286:
 4285               	.LM530:
 4286 1616 1196      		adiw r26,1
 4287 1618 2C91      		ld r18,X
 4288 161a 1197      		sbiw r26,1
 4289               	.LM531:
 4290 161c 1296      		adiw r26,2
 4291               	.LM532:
 4292 161e C75C      		subi r28,lo8(-313)
 4293 1620 DE4F      		sbci r29,hi8(-313)
 4294 1622 2883      		st Y,r18
 4295 1624 C953      		subi r28,lo8(313)
 4296 1626 D140      		sbci r29,hi8(313)
 4297 1628 C85C      		subi r28,lo8(-312)
 4298 162a DE4F      		sbci r29,hi8(-312)
 4299 162c 1882      		st Y,__zero_reg__
 4300 162e C853      		subi r28,lo8(312)
 4301 1630 D140      		sbci r29,hi8(312)
 4302 1632 90E0      		ldi r25,lo8(0)
 4303 1634 C85C      		subi r28,lo8(-312)
 4304 1636 DE4F      		sbci r29,hi8(-312)
 4305 1638 E881      		ld r30,Y
 4306 163a F981      		ldd r31,Y+1
 4307 163c C853      		subi r28,lo8(312)
 4308 163e D140      		sbci r29,hi8(312)
 4309 1640 8E2B      		or r24,r30
 4310 1642 9F2B      		or r25,r31
 4311               	.LVL287:
 4312               	/* #APP */
 4313               	 ;  891 "stk500boot.c" 1
 4314 1644 0C01      		movw  r0, r24
 4315 1646 FA01      		movw r30, r20
 4316 1648 6093 5B00 		sts 91, r22
 4317 164c 3093 5700 		sts 87, r19
 4318 1650 E895      		spm
 4319 1652 1124      		clr  r1
 4320               		
 4321               	 ;  0 "" 2
 4322               	.LM533:
 4323               	/* #NOAPP */
 4324 1654 4E5F      		subi r20,lo8(-(2))
 4325 1656 5F4F      		sbci r21,hi8(-(2))
 4326 1658 6F4F      		sbci r22,hlo8(-(2))
 4327 165a 7F4F      		sbci r23,hhi8(-(2))
 4328               	.LM534:
 4329 165c 0250      		subi r16,lo8(-(-2))
 4330 165e 1040      		sbci r17,hi8(-(-2))
 4331               	.LM535:
 4332 1660 01F4      		brne .L261
 4333               	.LM536:
 4334 1662 85E0      		ldi r24,lo8(5)
 4335               	.LVL288:
 4336 1664 C05E      		subi r28,lo8(-288)
 4337 1666 DE4F      		sbci r29,hi8(-288)
 4338 1668 E880      		ld r14,Y
 4339 166a F980      		ldd r15,Y+1
 4340 166c 0A81      		ldd r16,Y+2
 4341 166e 1B81      		ldd r17,Y+3
 4342 1670 C052      		subi r28,lo8(288)
 4343 1672 D140      		sbci r29,hi8(288)
 4344               	.LVL289:
 4345               	/* #APP */
 4346               	 ;  897 "stk500boot.c" 1
 4347 1674 F701      		movw r30, r14
 4348 1676 0093 5B00 		sts 91, r16
 4349 167a 8093 5700 		sts 87, r24
 4350 167e E895      		spm
 4351               		
 4352               	 ;  0 "" 2
 4353               	.LVL290:
 4354               	/* #NOAPP */
 4355               	.L262:
 4356               	.LM537:
 4357 1680 07B6      		in __tmp_reg__,87-32
 4358 1682 00FC      		sbrc __tmp_reg__,0
 4359 1684 00C0      		rjmp .L262
 4360               	.LM538:
 4361 1686 81E1      		ldi r24,lo8(17)
 4362               	/* #APP */
 4363               	 ;  899 "stk500boot.c" 1
 4364 1688 8093 5700 		sts 87, r24
 4365 168c E895      		spm
 4366               		
 4367               	 ;  0 "" 2
 4368               	.LVL291:
 4369               	/* #NOAPP */
 4370               	.L258:
 4371               	.LM539:
 4372 168e 1A82      		std Y+2,__zero_reg__
 4373 1690 C05E      		subi r28,lo8(-288)
 4374 1692 DE4F      		sbci r29,hi8(-288)
 4375 1694 4883      		st Y,r20
 4376 1696 5983      		std Y+1,r21
 4377 1698 6A83      		std Y+2,r22
 4378 169a 7B83      		std Y+3,r23
 4379 169c C052      		subi r28,lo8(288)
 4380 169e D140      		sbci r29,hi8(288)
 4381 16a0 00C0      		rjmp .L355
 4382               	.LVL292:
 4383               	.L231:
 4384               	.LBE769:
 4385               	.LBB770:
 4386               	.LM540:
 4387 16a2 FA80      		ldd r15,Y+2
 4388               	.LVL293:
 4389 16a4 C55C      		subi r28,lo8(-315)
 4390 16a6 DE4F      		sbci r29,hi8(-315)
 4391 16a8 F882      		st Y,r15
 4392 16aa CB53      		subi r28,lo8(315)
 4393 16ac D140      		sbci r29,hi8(315)
 4394 16ae C65C      		subi r28,lo8(-314)
 4395 16b0 DE4F      		sbci r29,hi8(-314)
 4396 16b2 1882      		st Y,__zero_reg__
 4397 16b4 CA53      		subi r28,lo8(314)
 4398 16b6 D140      		sbci r29,hi8(314)
 4399 16b8 8B81      		ldd r24,Y+3
 4400 16ba C82E      		mov r12,r24
 4401               	.LVL294:
 4402 16bc DD24      		clr r13
 4403 16be C65C      		subi r28,lo8(-314)
 4404 16c0 DE4F      		sbci r29,hi8(-314)
 4405 16c2 0881      		ld r16,Y
 4406 16c4 1981      		ldd r17,Y+1
 4407 16c6 CA53      		subi r28,lo8(314)
 4408 16c8 D140      		sbci r29,hi8(314)
 4409               	.LVL295:
 4410 16ca C02A      		or r12,r16
 4411 16cc D12A      		or r13,r17
 4412               	.LVL296:
 4413               	.LM541:
 4414 16ce 1A82      		std Y+2,__zero_reg__
 4415               	.LM542:
 4416 16d0 8981      		ldd r24,Y+1
 4417 16d2 BE01      		movw r22,r28
 4418               	.LVL297:
 4419 16d4 6D5F      		subi r22,lo8(-(3))
 4420 16d6 7F4F      		sbci r23,hi8(-(3))
 4421 16d8 8431      		cpi r24,lo8(20)
 4422 16da 01F4      		brne .L263
 4423 16dc 9601      		movw r18,r12
 4424               	.LVL298:
 4425               	.L264:
 4426               	.LBB771:
 4427               	.LBB772:
 4428               	.LM543:
 4429 16de C05E      		subi r28,lo8(-288)
 4430 16e0 DE4F      		sbci r29,hi8(-288)
 4431 16e2 E880      		ld r14,Y
 4432 16e4 F980      		ldd r15,Y+1
 4433 16e6 0A81      		ldd r16,Y+2
 4434 16e8 1B81      		ldd r17,Y+3
 4435 16ea C052      		subi r28,lo8(288)
 4436 16ec D140      		sbci r29,hi8(288)
 4437               	.LVL299:
 4438               	/* #APP */
 4439               	 ;  941 "stk500boot.c" 1
 4440 16ee 0BBF      		out 59, r16
 4441 16f0 F701      		movw r30, r14
 4442 16f2 8791      		elpm r24, Z+
 4443 16f4 9691      		elpm r25, Z
 4444               		
 4445               	 ;  0 "" 2
 4446               	.LVL300:
 4447               	/* #NOAPP */
 4448               	.LBE772:
 4449               	.LM544:
 4450 16f6 DB01      		movw r26,r22
 4451               	.LVL301:
 4452 16f8 8C93      		st X,r24
 4453               	.LM545:
 4454 16fa 1196      		adiw r26,1
 4455 16fc 9C93      		st X,r25
 4456               	.LM546:
 4457 16fe 6E5F      		subi r22,lo8(-(2))
 4458 1700 7F4F      		sbci r23,hi8(-(2))
 4459               	.LVL302:
 4460               	.LM547:
 4461 1702 D801      		movw r26,r16
 4462 1704 C701      		movw r24,r14
 4463               	.LVL303:
 4464 1706 0296      		adiw r24,2
 4465 1708 A11D      		adc r26,__zero_reg__
 4466 170a B11D      		adc r27,__zero_reg__
 4467 170c C05E      		subi r28,lo8(-288)
 4468 170e DE4F      		sbci r29,hi8(-288)
 4469 1710 8883      		st Y,r24
 4470 1712 9983      		std Y+1,r25
 4471 1714 AA83      		std Y+2,r26
 4472 1716 BB83      		std Y+3,r27
 4473 1718 C052      		subi r28,lo8(288)
 4474 171a D140      		sbci r29,hi8(288)
 4475               	.LVL304:
 4476               	.LM548:
 4477 171c 2250      		subi r18,lo8(-(-2))
 4478 171e 3040      		sbci r19,hi8(-(-2))
 4479               	.LM549:
 4480 1720 01F4      		brne .L264
 4481 1722 00C0      		rjmp .L265
 4482               	.LVL305:
 4483               	.L263:
 4484 1724 C05E      		subi r28,lo8(-288)
 4485 1726 DE4F      		sbci r29,hi8(-288)
 4486 1728 2881      		ld r18,Y
 4487 172a 3981      		ldd r19,Y+1
 4488 172c 4A81      		ldd r20,Y+2
 4489 172e 5B81      		ldd r21,Y+3
 4490 1730 C052      		subi r28,lo8(288)
 4491 1732 D140      		sbci r29,hi8(288)
 4492               	.LVL306:
 4493               	.LBE771:
 4494               	.LM550:
 4495 1734 0894      		sec
 4496 1736 C108      		sbc r12,__zero_reg__
 4497 1738 D108      		sbc r13,__zero_reg__
 4498               	.LM551:
 4499 173a 7601      		movw r14,r12
 4500               	.LVL307:
 4501 173c 00E0      		ldi r16,lo8(0)
 4502 173e 10E0      		ldi r17,hi8(0)
 4503 1740 0894      		sec
 4504 1742 C11C      		adc r12,__zero_reg__
 4505 1744 D11C      		adc r13,__zero_reg__
 4506 1746 0894      		sec
 4507 1748 E11C      		adc r14,__zero_reg__
 4508 174a F11C      		adc r15,__zero_reg__
 4509 174c 011D      		adc r16,__zero_reg__
 4510 174e 111D      		adc r17,__zero_reg__
 4511 1750 E20E      		add r14,r18
 4512 1752 F31E      		adc r15,r19
 4513 1754 041F      		adc r16,r20
 4514 1756 151F      		adc r17,r21
 4515               	.LVL308:
 4516               	.L266:
 4517               	.LM552:
 4518 1758 21BD      		out 65-32,r18
 4519               	.LM553:
 4520 175a BB27      		clr r27
 4521 175c A52F      		mov r26,r21
 4522 175e 942F      		mov r25,r20
 4523 1760 832F      		mov r24,r19
 4524 1762 82BD      		out 66-32,r24
 4525               	.LM554:
 4526 1764 2F5F      		subi r18,lo8(-(1))
 4527 1766 3F4F      		sbci r19,hi8(-(1))
 4528 1768 4F4F      		sbci r20,hlo8(-(1))
 4529 176a 5F4F      		sbci r21,hhi8(-(1))
 4530               	.LM555:
 4531 176c F89A      		sbi 63-32,0
 4532               	.LM556:
 4533 176e 80B5      		in r24,64-32
 4534 1770 DB01      		movw r26,r22
 4535               	.LVL309:
 4536 1772 8D93      		st X+,r24
 4537 1774 BD01      		movw r22,r26
 4538               	.LVL310:
 4539               	.LM557:
 4540 1776 2E15      		cp r18,r14
 4541 1778 3F05      		cpc r19,r15
 4542 177a 4007      		cpc r20,r16
 4543 177c 5107      		cpc r21,r17
 4544 177e 01F4      		brne .L266
 4545 1780 C05E      		subi r28,lo8(-288)
 4546 1782 DE4F      		sbci r29,hi8(-288)
 4547 1784 2883      		st Y,r18
 4548 1786 3983      		std Y+1,r19
 4549 1788 4A83      		std Y+2,r20
 4550 178a 5B83      		std Y+3,r21
 4551 178c C052      		subi r28,lo8(288)
 4552 178e D140      		sbci r29,hi8(288)
 4553               	.LVL311:
 4554               	.L265:
 4555               	.LM558:
 4556 1790 9601      		movw r18,r12
 4557               	.LVL312:
 4558 1792 2D5F      		subi r18,lo8(-(3))
 4559 1794 3F4F      		sbci r19,hi8(-(3))
 4560               	.LM559:
 4561 1796 FB01      		movw r30,r22
 4562 1798 1082      		st Z,__zero_reg__
 4563 179a 00C0      		rjmp .L244
 4564               	.LVL313:
 4565               	.L223:
 4566               	.LBE770:
 4567               	.LM560:
 4568 179c 80EC      		ldi r24,lo8(-64)
 4569 179e 8A83      		std Y+2,r24
 4570               	.LVL314:
 4571               	.L355:
 4572 17a0 22E0      		ldi r18,lo8(2)
 4573 17a2 30E0      		ldi r19,hi8(2)
 4574               	.LVL315:
 4575               	.L244:
 4576               	.LBB773:
 4577               	.LBB774:
 4578               	.LM561:
 4579 17a4 8BE1      		ldi r24,lo8(27)
 4580               	.LVL316:
 4581 17a6 8093 C600 		sts 198,r24
 4582               	.L267:
 4583               	.LM562:
 4584 17aa 8091 C000 		lds r24,192
 4585 17ae 86FF      		sbrs r24,6
 4586 17b0 00C0      		rjmp .L267
 4587               	.LM563:
 4588 17b2 8091 C000 		lds r24,192
 4589 17b6 8064      		ori r24,lo8(64)
 4590 17b8 8093 C000 		sts 192,r24
 4591               	.LBE774:
 4592               	.LBE773:
 4593               	.LBB775:
 4594               	.LBB776:
 4595               	.LM564:
 4596 17bc C15D      		subi r28,lo8(-303)
 4597 17be DE4F      		sbci r29,hi8(-303)
 4598 17c0 F881      		ld r31,Y
 4599 17c2 CF52      		subi r28,lo8(303)
 4600 17c4 D140      		sbci r29,hi8(303)
 4601 17c6 F093 C600 		sts 198,r31
 4602               	.L268:
 4603               	.LM565:
 4604 17ca 8091 C000 		lds r24,192
 4605 17ce 86FF      		sbrs r24,6
 4606 17d0 00C0      		rjmp .L268
 4607               	.LM566:
 4608 17d2 8091 C000 		lds r24,192
 4609 17d6 8064      		ori r24,lo8(64)
 4610 17d8 8093 C000 		sts 192,r24
 4611               	.LBE776:
 4612               	.LBE775:
 4613               	.LM567:
 4614 17dc 432F      		mov r20,r19
 4615               	.LVL317:
 4616               	.LBB777:
 4617               	.LBB778:
 4618               	.LM568:
 4619 17de 3093 C600 		sts 198,r19
 4620               	.LVL318:
 4621               	.L269:
 4622               	.LM569:
 4623 17e2 8091 C000 		lds r24,192
 4624 17e6 86FF      		sbrs r24,6
 4625 17e8 00C0      		rjmp .L269
 4626               	.LM570:
 4627 17ea 8091 C000 		lds r24,192
 4628 17ee 8064      		ori r24,lo8(64)
 4629 17f0 8093 C000 		sts 192,r24
 4630               	.LBE778:
 4631               	.LBE777:
 4632               	.LM571:
 4633 17f4 922F      		mov r25,r18
 4634               	.LVL319:
 4635               	.LBB779:
 4636               	.LBB780:
 4637               	.LM572:
 4638 17f6 2093 C600 		sts 198,r18
 4639               	.L270:
 4640               	.LM573:
 4641 17fa 8091 C000 		lds r24,192
 4642 17fe 86FF      		sbrs r24,6
 4643 1800 00C0      		rjmp .L270
 4644               	.LM574:
 4645 1802 8091 C000 		lds r24,192
 4646 1806 8064      		ori r24,lo8(64)
 4647 1808 8093 C000 		sts 192,r24
 4648               	.LBE780:
 4649               	.LBE779:
 4650               	.LBB781:
 4651               	.LBB782:
 4652               	.LM575:
 4653 180c 8EE0      		ldi r24,lo8(14)
 4654 180e 8093 C600 		sts 198,r24
 4655               	.L271:
 4656               	.LM576:
 4657 1812 8091 C000 		lds r24,192
 4658 1816 86FF      		sbrs r24,6
 4659 1818 00C0      		rjmp .L271
 4660               	.LM577:
 4661 181a 8091 C000 		lds r24,192
 4662 181e 8064      		ori r24,lo8(64)
 4663 1820 8093 C000 		sts 192,r24
 4664               	.LBE782:
 4665               	.LBE781:
 4666               	.LM578:
 4667 1824 65E1      		ldi r22,lo8(21)
 4668               	.LVL320:
 4669 1826 C15D      		subi r28,lo8(-303)
 4670 1828 DE4F      		sbci r29,hi8(-303)
 4671 182a E880      		ld r14,Y
 4672 182c CF52      		subi r28,lo8(303)
 4673 182e D140      		sbci r29,hi8(303)
 4674               	.LVL321:
 4675 1830 6E25      		eor r22,r14
 4676               	.LM579:
 4677 1832 6927      		eor r22,r25
 4678               	.LM580:
 4679 1834 6427      		eor r22,r20
 4680 1836 FE01      		movw r30,r28
 4681               	.LVL322:
 4682 1838 3196      		adiw r30,1
 4683 183a 00C0      		rjmp .L272
 4684               	.L274:
 4685               	.LM581:
 4686 183c 9081      		ld r25,Z
 4687               	.LBB783:
 4688               	.LBB784:
 4689               	.LM582:
 4690 183e 9093 C600 		sts 198,r25
 4691               	.L273:
 4692               	.LM583:
 4693 1842 8091 C000 		lds r24,192
 4694 1846 86FF      		sbrs r24,6
 4695 1848 00C0      		rjmp .L273
 4696               	.LBE784:
 4697               	.LBE783:
 4698               	.LM584:
 4699 184a 3196      		adiw r30,1
 4700               	.LBB786:
 4701               	.LBB785:
 4702               	.LM585:
 4703 184c 8091 C000 		lds r24,192
 4704 1850 8064      		ori r24,lo8(64)
 4705 1852 8093 C000 		sts 192,r24
 4706               	.LBE785:
 4707               	.LBE786:
 4708               	.LM586:
 4709 1856 6927      		eor r22,r25
 4710               	.LM587:
 4711 1858 2150      		subi r18,lo8(-(-1))
 4712 185a 3040      		sbci r19,hi8(-(-1))
 4713               	.LVL323:
 4714               	.L272:
 4715               	.LM588:
 4716 185c 2115      		cp r18,__zero_reg__
 4717 185e 3105      		cpc r19,__zero_reg__
 4718 1860 01F4      		brne .L274
 4719               	.LBB787:
 4720               	.LBB788:
 4721               	.LM589:
 4722 1862 6093 C600 		sts 198,r22
 4723               	.L275:
 4724               	.LM590:
 4725 1866 8091 C000 		lds r24,192
 4726 186a 86FF      		sbrs r24,6
 4727 186c 00C0      		rjmp .L275
 4728               	.LM591:
 4729 186e 8091 C000 		lds r24,192
 4730 1872 8064      		ori r24,lo8(64)
 4731 1874 8093 C000 		sts 192,r24
 4732               	.LBE788:
 4733               	.LBE787:
 4734               	.LM592:
 4735 1878 85B1      		in r24,37-32
 4736 187a 8058      		subi r24,lo8(-(-128))
 4737 187c 85B9      		out 37-32,r24
 4738               	.LM593:
 4739 187e 9920      		tst r9
 4740 1880 01F4      		brne .L85
 4741               	.LM594:
 4742 1882 C15D      		subi r28,lo8(-303)
 4743 1884 DE4F      		sbci r29,hi8(-303)
 4744 1886 0881      		ld r16,Y
 4745 1888 CF52      		subi r28,lo8(303)
 4746 188a D140      		sbci r29,hi8(303)
 4747               	.LVL324:
 4748 188c 0F5F      		subi r16,lo8(-(1))
 4749 188e C15D      		subi r28,lo8(-303)
 4750 1890 DE4F      		sbci r29,hi8(-303)
 4751 1892 0883      		st Y,r16
 4752 1894 CF52      		subi r28,lo8(303)
 4753 1896 D140      		sbci r29,hi8(303)
 4754               	.LVL325:
 4755               	.L86:
 4756 1898 90E0      		ldi r25,lo8(0)
 4757               	.LVL326:
 4758 189a A0E0      		ldi r26,lo8(0)
 4759 189c B0E0      		ldi r27,hi8(0)
 4760               	.LVL327:
 4761 189e 0C94 0000 		jmp .L345
 4762               	.LVL328:
 4763               	.L85:
 4764               	.LM595:
 4765 18a2 2798      		cbi 36-32,7
 4766               	.LM596:
 4767 18a4 2F98      		cbi 37-32,7
 4768 18a6 80E0      		ldi r24,lo8(0)
 4769 18a8 90E0      		ldi r25,hi8(0)
 4770               	.LVL329:
 4771               	.LBB789:
 4772               	.LBB790:
 4773               	.LBB791:
 4774               	.LBB792:
 4775               	.LBB793:
 4776               	.LBB794:
 4777               	.LM597:
 4778 18aa 20ED      		ldi r18,lo8(2000)
 4779 18ac 37E0      		ldi r19,hi8(2000)
 4780               	.LVL330:
 4781               	.L276:
 4782 18ae F901      		movw r30,r18
 4783               	.LVL331:
 4784               	/* #APP */
 4785               	 ;  105 "/usr/local/CrossPack-AVR-20100115/lib/gcc/avr/4.3.3/../../../../avr/include/util/delay_bas
 4786 18b0 3197      		1: sbiw r30,1
 4787 18b2 01F4      		brne 1b
 4788               	 ;  0 "" 2
 4789               	/* #NOAPP */
 4790               	.LBE794:
 4791               	.LBE793:
 4792               	.LBE792:
 4793               	.LBE791:
 4794               	.LM598:
 4795 18b4 0196      		adiw r24,1
 4796 18b6 8436      		cpi r24,100
 4797 18b8 9105      		cpc r25,__zero_reg__
 4798 18ba 01F4      		brne .L276
 4799               	.LBE790:
 4800               	.LBE789:
 4801               	.LM599:
 4802               	/* #APP */
 4803               	 ;  1048 "stk500boot.c" 1
 4804 18bc 0000      		nop
 4805               	 ;  0 "" 2
 4806               	.LM600:
 4807               	/* #NOAPP */
 4808 18be 8091 C000 		lds r24,192
 4809               	.LVL332:
 4810 18c2 8D7F      		andi r24,lo8(-3)
 4811 18c4 8093 C000 		sts 192,r24
 4812               	.LM601:
 4813 18c8 81E1      		ldi r24,lo8(17)
 4814               	/* #APP */
 4815               	 ;  1055 "stk500boot.c" 1
 4816 18ca 8093 5700 		sts 87, r24
 4817 18ce E895      		spm
 4818               		
 4819               	 ;  0 "" 2
 4820               	.LM602:
 4821               	 ;  1058 "stk500boot.c" 1
 4822 18d0 EE27      		clr	r30		
 4823 18d2 FF27      		clr	r31		
 4824 18d4 0994      		ijmp	
 4825               		
 4826               	 ;  0 "" 2
 4827               	/* #NOAPP */
 4828               	.L277:
 4829 18d6 00C0      		rjmp .L277
 4830               	.LVL333:
 4831               	.L221:
 4832 18d8 90E0      		ldi r25,lo8(0)
 4833 18da 0C94 0000 		jmp .L345
 4834               	.LFE12:
 4836               	.global	gTextMsg_CPU_Name
 4837               		.section	.progmem.data,"a",@progbits
 4840               	gTextMsg_CPU_Name:
 4841 0000 4154 6D65 		.string	"ATmega2560"
 4841      6761 3235 
 4841      3630 00
 4842               	.global	gTextMsg_Explorer
 4845               	gTextMsg_Explorer:
 4846 000b 4172 6475 		.string	"Arduino explorer stk500V2 by MLS"
 4846      696E 6F20 
 4846      6578 706C 
 4846      6F72 6572 
 4846      2073 746B 
 4847               	.global	gTextMsg_Prompt
 4850               	gTextMsg_Prompt:
 4851 002c 426F 6F74 		.string	"Bootloader>"
 4851      6C6F 6164 
 4851      6572 3E00 
 4852               	.global	gTextMsg_HUH
 4855               	gTextMsg_HUH:
 4856 0038 4875 683F 		.string	"Huh?"
 4856      00
 4857               	.global	gTextMsg_COMPILED_ON
 4860               	gTextMsg_COMPILED_ON:
 4861 003d 436F 6D70 		.string	"Compiled on  = "
 4861      696C 6564 
 4861      206F 6E20 
 4861      203D 2000 
 4862               	.global	gTextMsg_CPU_Type
 4865               	gTextMsg_CPU_Type:
 4866 004d 4350 5520 		.string	"CPU Type     = "
 4866      5479 7065 
 4866      2020 2020 
 4866      203D 2000 
 4867               	.global	gTextMsg_AVR_ARCH
 4870               	gTextMsg_AVR_ARCH:
 4871 005d 5F5F 4156 		.string	"__AVR_ARCH__ = "
 4871      525F 4152 
 4871      4348 5F5F 
 4871      203D 2000 
 4872               	.global	gTextMsg_AVR_LIBC
 4875               	gTextMsg_AVR_LIBC:
 4876 006d 4156 5220 		.string	"AVR LibC Ver = "
 4876      4C69 6243 
 4876      2056 6572 
 4876      203D 2000 
 4877               	.global	gTextMsg_GCC_VERSION
 4880               	gTextMsg_GCC_VERSION:
 4881 007d 4743 4320 		.string	"GCC Version  = "
 4881      5665 7273 
 4881      696F 6E20 
 4881      203D 2000 
 4882               	.global	gTextMsg_CPU_SIGNATURE
 4885               	gTextMsg_CPU_SIGNATURE:
 4886 008d 4350 5520 		.string	"CPU signature= "
 4886      7369 676E 
 4886      6174 7572 
 4886      653D 2000 
 4887               	.global	gTextMsg_FUSE_BYTE_LOW
 4890               	gTextMsg_FUSE_BYTE_LOW:
 4891 009d 4C6F 7720 		.string	"Low fuse     = "
 4891      6675 7365 
 4891      2020 2020 
 4891      203D 2000 
 4892               	.global	gTextMsg_FUSE_BYTE_HIGH
 4895               	gTextMsg_FUSE_BYTE_HIGH:
 4896 00ad 4869 6768 		.string	"High fuse    = "
 4896      2066 7573 
 4896      6520 2020 
 4896      203D 2000 
 4897               	.global	gTextMsg_FUSE_BYTE_EXT
 4900               	gTextMsg_FUSE_BYTE_EXT:
 4901 00bd 4578 7420 		.string	"Ext fuse     = "
 4901      6675 7365 
 4901      2020 2020 
 4901      203D 2000 
 4902               	.global	gTextMsg_FUSE_BYTE_LOCK
 4905               	gTextMsg_FUSE_BYTE_LOCK:
 4906 00cd 4C6F 636B 		.string	"Lock fuse    = "
 4906      2066 7573 
 4906      6520 2020 
 4906      203D 2000 
 4907               	.global	gTextMsg_GCC_DATE_STR
 4910               	gTextMsg_GCC_DATE_STR:
 4911 00dd 5365 7020 		.string	"Sep 28 2010"
 4911      3238 2032 
 4911      3031 3000 
 4912               	.global	gTextMsg_AVR_LIBC_VER_STR
 4915               	gTextMsg_AVR_LIBC_VER_STR:
 4916 00e9 312E 362E 		.string	"1.6.7"
 4916      3700 
 4917               	.global	gTextMsg_GCC_VERSION_STR
 4920               	gTextMsg_GCC_VERSION_STR:
 4921 00ef 342E 332E 		.string	"4.3.3"
 4921      3300 
 4922               	.global	gTextMsg_VECTOR_HEADER
 4925               	gTextMsg_VECTOR_HEADER:
 4926 00f5 5623 2020 		.string	"V#   ADDR   op code     instruction addr   Interrupt"
 4926      2041 4444 
 4926      5220 2020 
 4926      6F70 2063 
 4926      6F64 6520 
 4927               	.global	gTextMsg_noVector
 4930               	gTextMsg_noVector:
 4931 012a 6E6F 2076 		.string	"no vector"
 4931      6563 746F 
 4931      7200 
 4932               	.global	gTextMsg_rjmp
 4935               	gTextMsg_rjmp:
 4936 0134 726A 6D70 		.string	"rjmp  "
 4936      2020 00
 4937               	.global	gTextMsg_jmp
 4940               	gTextMsg_jmp:
 4941 013b 6A6D 7020 		.string	"jmp "
 4941      00
 4942               	.global	gTextMsg_WHAT_PORT
 4945               	gTextMsg_WHAT_PORT:
 4946 0140 5768 6174 		.string	"What port:"
 4946      2070 6F72 
 4946      743A 00
 4947               	.global	gTextMsg_PortNotSupported
 4950               	gTextMsg_PortNotSupported:
 4951 014b 506F 7274 		.string	"Port not supported"
 4951      206E 6F74 
 4951      2073 7570 
 4951      706F 7274 
 4951      6564 00
 4952               	.global	gTextMsg_MustBeLetter
 4955               	gTextMsg_MustBeLetter:
 4956 015e 4D75 7374 		.string	"Must be a letter"
 4956      2062 6520 
 4956      6120 6C65 
 4956      7474 6572 
 4956      00
 4957               	.global	gTextMsg_SPACE
 4960               	gTextMsg_SPACE:
 4961 016f 2000      		.string	" "
 4962               	.global	gTextMsg_WriteToEEprom
 4965               	gTextMsg_WriteToEEprom:
 4966 0171 5772 6974 		.string	"Writting EE"
 4966      7469 6E67 
 4966      2045 4500 
 4967               	.global	gTextMsg_ReadingEEprom
 4970               	gTextMsg_ReadingEEprom:
 4971 017d 5265 6164 		.string	"Reading EE"
 4971      696E 6720 
 4971      4545 00
 4972               	.global	gTextMsg_EEPROMerrorCnt
 4975               	gTextMsg_EEPROMerrorCnt:
 4976 0188 6565 7072 		.string	"eeprom error count="
 4976      6F6D 2065 
 4976      7272 6F72 
 4976      2063 6F75 
 4976      6E74 3D00 
 4977               	.global	gTextMsg_PORT
 4980               	gTextMsg_PORT:
 4981 019c 504F 5254 		.string	"PORT"
 4981      00
 4982               	.global	gTextMsg_HELP_MSG_0
 4985               	gTextMsg_HELP_MSG_0:
 4986 01a1 303D 5A65 		.string	"0=Zero address ctrs"
 4986      726F 2061 
 4986      6464 7265 
 4986      7373 2063 
 4986      7472 7300 
 4987               	.global	gTextMsg_HELP_MSG_QM
 4990               	gTextMsg_HELP_MSG_QM:
 4991 01b5 3F3D 4350 		.string	"?=CPU stats"
 4991      5520 7374 
 4991      6174 7300 
 4992               	.global	gTextMsg_HELP_MSG_AT
 4995               	gTextMsg_HELP_MSG_AT:
 4996 01c1 403D 4545 		.string	"@=EEPROM test"
 4996      5052 4F4D 
 4996      2074 6573 
 4996      7400 
 4997               	.global	gTextMsg_HELP_MSG_B
 5000               	gTextMsg_HELP_MSG_B:
 5001 01cf 423D 426C 		.string	"B=Blink LED"
 5001      696E 6B20 
 5001      4C45 4400 
 5002               	.global	gTextMsg_HELP_MSG_E
 5005               	gTextMsg_HELP_MSG_E:
 5006 01db 453D 4475 		.string	"E=Dump EEPROM"
 5006      6D70 2045 
 5006      4550 524F 
 5006      4D00 
 5007               	.global	gTextMsg_HELP_MSG_F
 5010               	gTextMsg_HELP_MSG_F:
 5011 01e9 463D 4475 		.string	"F=Dump FLASH"
 5011      6D70 2046 
 5011      4C41 5348 
 5011      00
 5012               	.global	gTextMsg_HELP_MSG_H
 5015               	gTextMsg_HELP_MSG_H:
 5016 01f6 483D 4865 		.string	"H=Help"
 5016      6C70 00
 5017               	.global	gTextMsg_HELP_MSG_L
 5020               	gTextMsg_HELP_MSG_L:
 5021 01fd 4C3D 4C69 		.string	"L=List I/O Ports"
 5021      7374 2049 
 5021      2F4F 2050 
 5021      6F72 7473 
 5021      00
 5022               	.global	gTextMsg_HELP_MSG_Q
 5025               	gTextMsg_HELP_MSG_Q:
 5026 020e 513D 5175 		.string	"Q=Quit & jump to user pgm"
 5026      6974 2026 
 5026      206A 756D 
 5026      7020 746F 
 5026      2075 7365 
 5027               	.global	gTextMsg_HELP_MSG_R
 5030               	gTextMsg_HELP_MSG_R:
 5031 0228 523D 4475 		.string	"R=Dump RAM"
 5031      6D70 2052 
 5031      414D 00
 5032               	.global	gTextMsg_HELP_MSG_V
 5035               	gTextMsg_HELP_MSG_V:
 5036 0233 563D 7368 		.string	"V=show interrupt Vectors"
 5036      6F77 2069 
 5036      6E74 6572 
 5036      7275 7074 
 5036      2056 6563 
 5037               	.global	gTextMsg_HELP_MSG_Y
 5040               	gTextMsg_HELP_MSG_Y:
 5041 024c 593D 506F 		.string	"Y=Port blink"
 5041      7274 2062 
 5041      6C69 6E6B 
 5041      00
 5042               	.global	gTextMsg_END
 5045               	gTextMsg_END:
 5046 0259 2A00      		.string	"*"
 5047               	.global	gAvrInt_RESET
 5050               	gAvrInt_RESET:
 5051 025b 5245 5345 		.string	"RESET"
 5051      5400 
 5052               	.global	gAvrInt_INT0
 5055               	gAvrInt_INT0:
 5056 0261 494E 5430 		.string	"INT0"
 5056      00
 5057               	.global	gAvrInt_INT1
 5060               	gAvrInt_INT1:
 5061 0266 494E 5431 		.string	"INT1"
 5061      00
 5062               	.global	gAvrInt_INT2
 5065               	gAvrInt_INT2:
 5066 026b 494E 5432 		.string	"INT2"
 5066      00
 5067               	.global	gAvrInt_INT3
 5070               	gAvrInt_INT3:
 5071 0270 494E 5433 		.string	"INT3"
 5071      00
 5072               	.global	gAvrInt_INT4
 5075               	gAvrInt_INT4:
 5076 0275 494E 5434 		.string	"INT4"
 5076      00
 5077               	.global	gAvrInt_INT5
 5080               	gAvrInt_INT5:
 5081 027a 494E 5435 		.string	"INT5"
 5081      00
 5082               	.global	gAvrInt_INT6
 5085               	gAvrInt_INT6:
 5086 027f 494E 5436 		.string	"INT6"
 5086      00
 5087               	.global	gAvrInt_INT7
 5090               	gAvrInt_INT7:
 5091 0284 494E 5437 		.string	"INT7"
 5091      00
 5092               	.global	gAvrInt_PCINT0
 5095               	gAvrInt_PCINT0:
 5096 0289 5043 494E 		.string	"PCINT0"
 5096      5430 00
 5097               	.global	gAvrInt_PCINT1
 5100               	gAvrInt_PCINT1:
 5101 0290 5043 494E 		.string	"PCINT1"
 5101      5431 00
 5102               	.global	gAvrInt_PCINT2
 5105               	gAvrInt_PCINT2:
 5106 0297 5043 494E 		.string	"PCINT2"
 5106      5432 00
 5107               	.global	gAvrInt_WDT
 5110               	gAvrInt_WDT:
 5111 029e 5744 5400 		.string	"WDT"
 5112               	.global	gAvrInt_TIMER0_COMPA
 5115               	gAvrInt_TIMER0_COMPA:
 5116 02a2 5449 4D45 		.string	"TIMER0 COMPA"
 5116      5230 2043 
 5116      4F4D 5041 
 5116      00
 5117               	.global	gAvrInt_TIMER0_COMPB
 5120               	gAvrInt_TIMER0_COMPB:
 5121 02af 5449 4D45 		.string	"TIMER0 COMPB"
 5121      5230 2043 
 5121      4F4D 5042 
 5121      00
 5122               	.global	gAvrInt_TIMER0_OVF
 5125               	gAvrInt_TIMER0_OVF:
 5126 02bc 5449 4D45 		.string	"TIMER0 OVF"
 5126      5230 204F 
 5126      5646 00
 5127               	.global	gAvrInt_TIMER1_CAPT
 5130               	gAvrInt_TIMER1_CAPT:
 5131 02c7 5449 4D45 		.string	"TIMER1 CAPT"
 5131      5231 2043 
 5131      4150 5400 
 5132               	.global	gAvrInt_TIMER1_COMPA
 5135               	gAvrInt_TIMER1_COMPA:
 5136 02d3 5449 4D45 		.string	"TIMER1 COMPA"
 5136      5231 2043 
 5136      4F4D 5041 
 5136      00
 5137               	.global	gAvrInt_TIMER1_COMPB
 5140               	gAvrInt_TIMER1_COMPB:
 5141 02e0 5449 4D45 		.string	"TIMER1 COMPB"
 5141      5231 2043 
 5141      4F4D 5042 
 5141      00
 5142               	.global	gAvrInt_TIMER1_COMPC
 5145               	gAvrInt_TIMER1_COMPC:
 5146 02ed 5449 4D45 		.string	"TIMER1 COMPC"
 5146      5231 2043 
 5146      4F4D 5043 
 5146      00
 5147               	.global	gAvrInt_TIMER1_OVF
 5150               	gAvrInt_TIMER1_OVF:
 5151 02fa 5449 4D45 		.string	"TIMER1 OVF"
 5151      5231 204F 
 5151      5646 00
 5152               	.global	gAvrInt_TIMER2_COMPA
 5155               	gAvrInt_TIMER2_COMPA:
 5156 0305 5449 4D45 		.string	"TIMER2 COMPA"
 5156      5232 2043 
 5156      4F4D 5041 
 5156      00
 5157               	.global	gAvrInt_TIMER2_COMPB
 5160               	gAvrInt_TIMER2_COMPB:
 5161 0312 5449 4D45 		.string	"TIMER2 COMPB"
 5161      5232 2043 
 5161      4F4D 5042 
 5161      00
 5162               	.global	gAvrInt_TIMER2_OVF
 5165               	gAvrInt_TIMER2_OVF:
 5166 031f 5449 4D45 		.string	"TIMER2 OVF"
 5166      5232 204F 
 5166      5646 00
 5167               	.global	gAvrInt_TIMER3_CAPT
 5170               	gAvrInt_TIMER3_CAPT:
 5171 032a 5449 4D45 		.string	"TIMER3 CAPT"
 5171      5233 2043 
 5171      4150 5400 
 5172               	.global	gAvrInt_TIMER3_COMPA
 5175               	gAvrInt_TIMER3_COMPA:
 5176 0336 5449 4D45 		.string	"TIMER3 COMPA"
 5176      5233 2043 
 5176      4F4D 5041 
 5176      00
 5177               	.global	gAvrInt_TIMER3_COMPB
 5180               	gAvrInt_TIMER3_COMPB:
 5181 0343 5449 4D45 		.string	"TIMER3 COMPB"
 5181      5233 2043 
 5181      4F4D 5042 
 5181      00
 5182               	.global	gAvrInt_TIMER3_COMPC
 5185               	gAvrInt_TIMER3_COMPC:
 5186 0350 5449 4D45 		.string	"TIMER3 COMPC"
 5186      5233 2043 
 5186      4F4D 5043 
 5186      00
 5187               	.global	gAvrInt_TIMER3_OVF
 5190               	gAvrInt_TIMER3_OVF:
 5191 035d 5449 4D45 		.string	"TIMER3 OVF"
 5191      5233 204F 
 5191      5646 00
 5192               	.global	gAvrInt_TIMER4_CAPT
 5195               	gAvrInt_TIMER4_CAPT:
 5196 0368 5449 4D45 		.string	"TIMER4 CAPT"
 5196      5234 2043 
 5196      4150 5400 
 5197               	.global	gAvrInt_TIMER4_COMPA
 5200               	gAvrInt_TIMER4_COMPA:
 5201 0374 5449 4D45 		.string	"TIMER4 COMPA"
 5201      5234 2043 
 5201      4F4D 5041 
 5201      00
 5202               	.global	gAvrInt_TIMER4_COMPB
 5205               	gAvrInt_TIMER4_COMPB:
 5206 0381 5449 4D45 		.string	"TIMER4 COMPB"
 5206      5234 2043 
 5206      4F4D 5042 
 5206      00
 5207               	.global	gAvrInt_TIMER4_COMPC
 5210               	gAvrInt_TIMER4_COMPC:
 5211 038e 5449 4D45 		.string	"TIMER4 COMPC"
 5211      5234 2043 
 5211      4F4D 5043 
 5211      00
 5212               	.global	gAvrInt_TIMER4_OVF
 5215               	gAvrInt_TIMER4_OVF:
 5216 039b 5449 4D45 		.string	"TIMER4 OVF"
 5216      5234 204F 
 5216      5646 00
 5217               	.global	gAvrInt_TIMER5_CAPT
 5220               	gAvrInt_TIMER5_CAPT:
 5221 03a6 5449 4D45 		.string	"TIMER5 CAPT"
 5221      5235 2043 
 5221      4150 5400 
 5222               	.global	gAvrInt_TIMER5_COMPA
 5225               	gAvrInt_TIMER5_COMPA:
 5226 03b2 5449 4D45 		.string	"TIMER5 COMPA"
 5226      5235 2043 
 5226      4F4D 5041 
 5226      00
 5227               	.global	gAvrInt_TIMER5_COMPB
 5230               	gAvrInt_TIMER5_COMPB:
 5231 03bf 5449 4D45 		.string	"TIMER5 COMPB"
 5231      5235 2043 
 5231      4F4D 5042 
 5231      00
 5232               	.global	gAvrInt_TIMER5_COMPC
 5235               	gAvrInt_TIMER5_COMPC:
 5236 03cc 5449 4D45 		.string	"TIMER5 COMPC"
 5236      5235 2043 
 5236      4F4D 5043 
 5236      00
 5237               	.global	gAvrInt_TIMER5_OVF
 5240               	gAvrInt_TIMER5_OVF:
 5241 03d9 5449 4D45 		.string	"TIMER5 OVF"
 5241      5235 204F 
 5241      5646 00
 5242               	.global	gAvrInt_USART0_RX
 5245               	gAvrInt_USART0_RX:
 5246 03e4 5553 4152 		.string	"USART0 RX"
 5246      5430 2052 
 5246      5800 
 5247               	.global	gAvrInt_USART0_UDRE
 5250               	gAvrInt_USART0_UDRE:
 5251 03ee 5553 4152 		.string	"USART0 UDRE"
 5251      5430 2055 
 5251      4452 4500 
 5252               	.global	gAvrInt_USART0_TX
 5255               	gAvrInt_USART0_TX:
 5256 03fa 5553 4152 		.string	"USART0 TX"
 5256      5430 2054 
 5256      5800 
 5257               	.global	gAvrInt_USART1_RX
 5260               	gAvrInt_USART1_RX:
 5261 0404 5553 4152 		.string	"USART1 RX"
 5261      5431 2052 
 5261      5800 
 5262               	.global	gAvrInt_USART1_UDRE
 5265               	gAvrInt_USART1_UDRE:
 5266 040e 5553 4152 		.string	"USART1 UDRE"
 5266      5431 2055 
 5266      4452 4500 
 5267               	.global	gAvrInt_USART1_TX
 5270               	gAvrInt_USART1_TX:
 5271 041a 5553 4152 		.string	"USART1 TX"
 5271      5431 2054 
 5271      5800 
 5272               	.global	gAvrInt_USART2_RX
 5275               	gAvrInt_USART2_RX:
 5276 0424 5553 4152 		.string	"USART2 RX"
 5276      5432 2052 
 5276      5800 
 5277               	.global	gAvrInt_USART2_UDRE
 5280               	gAvrInt_USART2_UDRE:
 5281 042e 5553 4152 		.string	"USART2 UDRE"
 5281      5432 2055 
 5281      4452 4500 
 5282               	.global	gAvrInt_USART2_TX
 5285               	gAvrInt_USART2_TX:
 5286 043a 5553 4152 		.string	"USART2 TX"
 5286      5432 2054 
 5286      5800 
 5287               	.global	gAvrInt_USART3_RX
 5290               	gAvrInt_USART3_RX:
 5291 0444 5553 4152 		.string	"USART3 RX"
 5291      5433 2052 
 5291      5800 
 5292               	.global	gAvrInt_USART3_UDRE
 5295               	gAvrInt_USART3_UDRE:
 5296 044e 5553 4152 		.string	"USART3 UDRE"
 5296      5433 2055 
 5296      4452 4500 
 5297               	.global	gAvrInt_USART3_TX
 5300               	gAvrInt_USART3_TX:
 5301 045a 5553 4152 		.string	"USART3 TX"
 5301      5433 2054 
 5301      5800 
 5302               	.global	gAvrInt_SPI_STC
 5305               	gAvrInt_SPI_STC:
 5306 0464 5350 4920 		.string	"SPI STC"
 5306      5354 4300 
 5307               	.global	gAvrInt_ADC
 5310               	gAvrInt_ADC:
 5311 046c 4144 4300 		.string	"ADC"
 5312               	.global	gAvrInt_ANALOG_COMP
 5315               	gAvrInt_ANALOG_COMP:
 5316 0470 414E 414C 		.string	"ANALOG COMP"
 5316      4F47 2043 
 5316      4F4D 5000 
 5317               	.global	gAvrInt_EE_READY
 5320               	gAvrInt_EE_READY:
 5321 047c 4545 2052 		.string	"EE READY"
 5321      4541 4459 
 5321      00
 5322               	.global	gAvrInt_TWI
 5325               	gAvrInt_TWI:
 5326 0485 5457 4900 		.string	"TWI"
 5327               	.global	gAvrInt_SPM_READY
 5330               	gAvrInt_SPM_READY:
 5331 0489 5350 4D20 		.string	"SPM READY"
 5331      5245 4144 
 5331      5900 
 5332               	.global	gAvrInt_END
 5335               	gAvrInt_END:
 5336 0493 2A00      		.string	"*"
 5337               	.global	gInterruptNameTable
 5340               	gInterruptNameTable:
 5341 0495 0000      		.word	gAvrInt_RESET
 5342 0497 0000      		.word	gAvrInt_INT0
 5343 0499 0000      		.word	gAvrInt_INT1
 5344 049b 0000      		.word	gAvrInt_INT2
 5345 049d 0000      		.word	gAvrInt_INT3
 5346 049f 0000      		.word	gAvrInt_INT4
 5347 04a1 0000      		.word	gAvrInt_INT5
 5348 04a3 0000      		.word	gAvrInt_INT6
 5349 04a5 0000      		.word	gAvrInt_INT7
 5350 04a7 0000      		.word	gAvrInt_PCINT0
 5351 04a9 0000      		.word	gAvrInt_PCINT1
 5352 04ab 0000      		.word	gAvrInt_PCINT2
 5353 04ad 0000      		.word	gAvrInt_WDT
 5354 04af 0000      		.word	gAvrInt_TIMER2_COMPA
 5355 04b1 0000      		.word	gAvrInt_TIMER2_COMPB
 5356 04b3 0000      		.word	gAvrInt_TIMER2_OVF
 5357 04b5 0000      		.word	gAvrInt_TIMER1_CAPT
 5358 04b7 0000      		.word	gAvrInt_TIMER1_COMPA
 5359 04b9 0000      		.word	gAvrInt_TIMER1_COMPB
 5360 04bb 0000      		.word	gAvrInt_TIMER1_COMPC
 5361 04bd 0000      		.word	gAvrInt_TIMER1_OVF
 5362 04bf 0000      		.word	gAvrInt_TIMER0_COMPA
 5363 04c1 0000      		.word	gAvrInt_TIMER0_COMPB
 5364 04c3 0000      		.word	gAvrInt_TIMER0_OVF
 5365 04c5 0000      		.word	gAvrInt_SPI_STC
 5366 04c7 0000      		.word	gAvrInt_USART0_RX
 5367 04c9 0000      		.word	gAvrInt_USART0_UDRE
 5368 04cb 0000      		.word	gAvrInt_USART0_TX
 5369 04cd 0000      		.word	gAvrInt_ANALOG_COMP
 5370 04cf 0000      		.word	gAvrInt_ADC
 5371 04d1 0000      		.word	gAvrInt_EE_READY
 5372 04d3 0000      		.word	gAvrInt_TIMER3_CAPT
 5373 04d5 0000      		.word	gAvrInt_TIMER3_COMPA
 5374 04d7 0000      		.word	gAvrInt_TIMER3_COMPB
 5375 04d9 0000      		.word	gAvrInt_TIMER3_COMPC
 5376 04db 0000      		.word	gAvrInt_TIMER3_OVF
 5377 04dd 0000      		.word	gAvrInt_USART1_RX
 5378 04df 0000      		.word	gAvrInt_USART1_UDRE
 5379 04e1 0000      		.word	gAvrInt_USART1_TX
 5380 04e3 0000      		.word	gAvrInt_TWI
 5381 04e5 0000      		.word	gAvrInt_SPM_READY
 5382 04e7 0000      		.word	gAvrInt_TIMER4_CAPT
 5383 04e9 0000      		.word	gAvrInt_TIMER4_COMPA
 5384 04eb 0000      		.word	gAvrInt_TIMER4_COMPB
 5385 04ed 0000      		.word	gAvrInt_TIMER4_COMPC
 5386 04ef 0000      		.word	gAvrInt_TIMER4_OVF
 5387 04f1 0000      		.word	gAvrInt_TIMER5_CAPT
 5388 04f3 0000      		.word	gAvrInt_TIMER5_COMPA
 5389 04f5 0000      		.word	gAvrInt_TIMER5_COMPB
 5390 04f7 0000      		.word	gAvrInt_TIMER5_COMPC
 5391 04f9 0000      		.word	gAvrInt_TIMER5_OVF
 5392 04fb 0000      		.word	gAvrInt_USART2_RX
 5393 04fd 0000      		.word	gAvrInt_USART2_UDRE
 5394 04ff 0000      		.word	gAvrInt_USART2_TX
 5395 0501 0000      		.word	gAvrInt_USART3_RX
 5396 0503 0000      		.word	gAvrInt_USART3_UDRE
 5397 0505 0000      		.word	gAvrInt_USART3_TX
 5398               		.comm gRamIndex,4,1
 5399               		.comm gFlashIndex,4,1
 5400               		.comm gEepromIndex,4,1
 5513               	.Letext0:
DEFINED SYMBOLS
                            *ABS*:00000000 stk500boot.c
/var/folders/At/AtJ1kM1UFOeJFbUSaF5E+k+++TI/-Tmp-//ccQGdSXP.s:2      *ABS*:0000003f __SREG__
/var/folders/At/AtJ1kM1UFOeJFbUSaF5E+k+++TI/-Tmp-//ccQGdSXP.s:3      *ABS*:0000003e __SP_H__
/var/folders/At/AtJ1kM1UFOeJFbUSaF5E+k+++TI/-Tmp-//ccQGdSXP.s:4      *ABS*:0000003d __SP_L__
/var/folders/At/AtJ1kM1UFOeJFbUSaF5E+k+++TI/-Tmp-//ccQGdSXP.s:5      *ABS*:00000034 __CCP__
/var/folders/At/AtJ1kM1UFOeJFbUSaF5E+k+++TI/-Tmp-//ccQGdSXP.s:6      *ABS*:00000000 __tmp_reg__
/var/folders/At/AtJ1kM1UFOeJFbUSaF5E+k+++TI/-Tmp-//ccQGdSXP.s:7      *ABS*:00000001 __zero_reg__
/var/folders/At/AtJ1kM1UFOeJFbUSaF5E+k+++TI/-Tmp-//ccQGdSXP.s:19     .init9:00000000 __jumpMain
/var/folders/At/AtJ1kM1UFOeJFbUSaF5E+k+++TI/-Tmp-//ccQGdSXP.s:27     *ABS*:000021ff __stack
/var/folders/At/AtJ1kM1UFOeJFbUSaF5E+k+++TI/-Tmp-//ccQGdSXP.s:834    .text:000003b4 main
/var/folders/At/AtJ1kM1UFOeJFbUSaF5E+k+++TI/-Tmp-//ccQGdSXP.s:65     .text:00000000 delay_ms
/var/folders/At/AtJ1kM1UFOeJFbUSaF5E+k+++TI/-Tmp-//ccQGdSXP.s:110    .text:0000001c PrintFromPROGMEM
/var/folders/At/AtJ1kM1UFOeJFbUSaF5E+k+++TI/-Tmp-//ccQGdSXP.s:171    .text:00000058 PrintNewLine
/var/folders/At/AtJ1kM1UFOeJFbUSaF5E+k+++TI/-Tmp-//ccQGdSXP.s:215    .text:0000008a PrintFromPROGMEMln
/var/folders/At/AtJ1kM1UFOeJFbUSaF5E+k+++TI/-Tmp-//ccQGdSXP.s:233    .text:00000094 PrintString
/var/folders/At/AtJ1kM1UFOeJFbUSaF5E+k+++TI/-Tmp-//ccQGdSXP.s:275    .text:000000ba PrintHexByte
/var/folders/At/AtJ1kM1UFOeJFbUSaF5E+k+++TI/-Tmp-//ccQGdSXP.s:345    .text:00000108 PrintDecInt
/var/folders/At/AtJ1kM1UFOeJFbUSaF5E+k+++TI/-Tmp-//ccQGdSXP.s:449    .text:00000196 analogRead
/var/folders/At/AtJ1kM1UFOeJFbUSaF5E+k+++TI/-Tmp-//ccQGdSXP.s:509    .text:000001ea PrintAvailablePort
/var/folders/At/AtJ1kM1UFOeJFbUSaF5E+k+++TI/-Tmp-//ccQGdSXP.s:4980   .progmem.data:0000019c gTextMsg_PORT
/var/folders/At/AtJ1kM1UFOeJFbUSaF5E+k+++TI/-Tmp-//ccQGdSXP.s:548    .text:00000216 DumpHex
                            *COM*:00000004 gRamIndex
                            *COM*:00000004 gFlashIndex
                            *COM*:00000004 gEepromIndex
/var/folders/At/AtJ1kM1UFOeJFbUSaF5E+k+++TI/-Tmp-//ccQGdSXP.s:4845   .progmem.data:0000000b gTextMsg_Explorer
/var/folders/At/AtJ1kM1UFOeJFbUSaF5E+k+++TI/-Tmp-//ccQGdSXP.s:4850   .progmem.data:0000002c gTextMsg_Prompt
/var/folders/At/AtJ1kM1UFOeJFbUSaF5E+k+++TI/-Tmp-//ccQGdSXP.s:4985   .progmem.data:000001a1 gTextMsg_HELP_MSG_0
/var/folders/At/AtJ1kM1UFOeJFbUSaF5E+k+++TI/-Tmp-//ccQGdSXP.s:4990   .progmem.data:000001b5 gTextMsg_HELP_MSG_QM
/var/folders/At/AtJ1kM1UFOeJFbUSaF5E+k+++TI/-Tmp-//ccQGdSXP.s:4860   .progmem.data:0000003d gTextMsg_COMPILED_ON
/var/folders/At/AtJ1kM1UFOeJFbUSaF5E+k+++TI/-Tmp-//ccQGdSXP.s:4910   .progmem.data:000000dd gTextMsg_GCC_DATE_STR
/var/folders/At/AtJ1kM1UFOeJFbUSaF5E+k+++TI/-Tmp-//ccQGdSXP.s:4865   .progmem.data:0000004d gTextMsg_CPU_Type
/var/folders/At/AtJ1kM1UFOeJFbUSaF5E+k+++TI/-Tmp-//ccQGdSXP.s:4840   .progmem.data:00000000 gTextMsg_CPU_Name
/var/folders/At/AtJ1kM1UFOeJFbUSaF5E+k+++TI/-Tmp-//ccQGdSXP.s:4870   .progmem.data:0000005d gTextMsg_AVR_ARCH
/var/folders/At/AtJ1kM1UFOeJFbUSaF5E+k+++TI/-Tmp-//ccQGdSXP.s:4880   .progmem.data:0000007d gTextMsg_GCC_VERSION
/var/folders/At/AtJ1kM1UFOeJFbUSaF5E+k+++TI/-Tmp-//ccQGdSXP.s:4920   .progmem.data:000000ef gTextMsg_GCC_VERSION_STR
/var/folders/At/AtJ1kM1UFOeJFbUSaF5E+k+++TI/-Tmp-//ccQGdSXP.s:4875   .progmem.data:0000006d gTextMsg_AVR_LIBC
/var/folders/At/AtJ1kM1UFOeJFbUSaF5E+k+++TI/-Tmp-//ccQGdSXP.s:4915   .progmem.data:000000e9 gTextMsg_AVR_LIBC_VER_STR
/var/folders/At/AtJ1kM1UFOeJFbUSaF5E+k+++TI/-Tmp-//ccQGdSXP.s:4885   .progmem.data:0000008d gTextMsg_CPU_SIGNATURE
/var/folders/At/AtJ1kM1UFOeJFbUSaF5E+k+++TI/-Tmp-//ccQGdSXP.s:4890   .progmem.data:0000009d gTextMsg_FUSE_BYTE_LOW
/var/folders/At/AtJ1kM1UFOeJFbUSaF5E+k+++TI/-Tmp-//ccQGdSXP.s:4895   .progmem.data:000000ad gTextMsg_FUSE_BYTE_HIGH
/var/folders/At/AtJ1kM1UFOeJFbUSaF5E+k+++TI/-Tmp-//ccQGdSXP.s:4900   .progmem.data:000000bd gTextMsg_FUSE_BYTE_EXT
/var/folders/At/AtJ1kM1UFOeJFbUSaF5E+k+++TI/-Tmp-//ccQGdSXP.s:4905   .progmem.data:000000cd gTextMsg_FUSE_BYTE_LOCK
/var/folders/At/AtJ1kM1UFOeJFbUSaF5E+k+++TI/-Tmp-//ccQGdSXP.s:4995   .progmem.data:000001c1 gTextMsg_HELP_MSG_AT
/var/folders/At/AtJ1kM1UFOeJFbUSaF5E+k+++TI/-Tmp-//ccQGdSXP.s:4965   .progmem.data:00000171 gTextMsg_WriteToEEprom
/var/folders/At/AtJ1kM1UFOeJFbUSaF5E+k+++TI/-Tmp-//ccQGdSXP.s:4960   .progmem.data:0000016f gTextMsg_SPACE
/var/folders/At/AtJ1kM1UFOeJFbUSaF5E+k+++TI/-Tmp-//ccQGdSXP.s:4970   .progmem.data:0000017d gTextMsg_ReadingEEprom
/var/folders/At/AtJ1kM1UFOeJFbUSaF5E+k+++TI/-Tmp-//ccQGdSXP.s:4975   .progmem.data:00000188 gTextMsg_EEPROMerrorCnt
/var/folders/At/AtJ1kM1UFOeJFbUSaF5E+k+++TI/-Tmp-//ccQGdSXP.s:5000   .progmem.data:000001cf gTextMsg_HELP_MSG_B
/var/folders/At/AtJ1kM1UFOeJFbUSaF5E+k+++TI/-Tmp-//ccQGdSXP.s:5005   .progmem.data:000001db gTextMsg_HELP_MSG_E
/var/folders/At/AtJ1kM1UFOeJFbUSaF5E+k+++TI/-Tmp-//ccQGdSXP.s:5010   .progmem.data:000001e9 gTextMsg_HELP_MSG_F
/var/folders/At/AtJ1kM1UFOeJFbUSaF5E+k+++TI/-Tmp-//ccQGdSXP.s:5015   .progmem.data:000001f6 gTextMsg_HELP_MSG_H
/var/folders/At/AtJ1kM1UFOeJFbUSaF5E+k+++TI/-Tmp-//ccQGdSXP.s:5020   .progmem.data:000001fd gTextMsg_HELP_MSG_L
/var/folders/At/AtJ1kM1UFOeJFbUSaF5E+k+++TI/-Tmp-//ccQGdSXP.s:5025   .progmem.data:0000020e gTextMsg_HELP_MSG_Q
/var/folders/At/AtJ1kM1UFOeJFbUSaF5E+k+++TI/-Tmp-//ccQGdSXP.s:5030   .progmem.data:00000228 gTextMsg_HELP_MSG_R
/var/folders/At/AtJ1kM1UFOeJFbUSaF5E+k+++TI/-Tmp-//ccQGdSXP.s:5035   .progmem.data:00000233 gTextMsg_HELP_MSG_V
/var/folders/At/AtJ1kM1UFOeJFbUSaF5E+k+++TI/-Tmp-//ccQGdSXP.s:5040   .progmem.data:0000024c gTextMsg_HELP_MSG_Y
/var/folders/At/AtJ1kM1UFOeJFbUSaF5E+k+++TI/-Tmp-//ccQGdSXP.s:4925   .progmem.data:000000f5 gTextMsg_VECTOR_HEADER
/var/folders/At/AtJ1kM1UFOeJFbUSaF5E+k+++TI/-Tmp-//ccQGdSXP.s:5340   .progmem.data:00000495 gInterruptNameTable
/var/folders/At/AtJ1kM1UFOeJFbUSaF5E+k+++TI/-Tmp-//ccQGdSXP.s:4930   .progmem.data:0000012a gTextMsg_noVector
/var/folders/At/AtJ1kM1UFOeJFbUSaF5E+k+++TI/-Tmp-//ccQGdSXP.s:4935   .progmem.data:00000134 gTextMsg_rjmp
/var/folders/At/AtJ1kM1UFOeJFbUSaF5E+k+++TI/-Tmp-//ccQGdSXP.s:4940   .progmem.data:0000013b gTextMsg_jmp
/var/folders/At/AtJ1kM1UFOeJFbUSaF5E+k+++TI/-Tmp-//ccQGdSXP.s:4945   .progmem.data:00000140 gTextMsg_WHAT_PORT
/var/folders/At/AtJ1kM1UFOeJFbUSaF5E+k+++TI/-Tmp-//ccQGdSXP.s:4950   .progmem.data:0000014b gTextMsg_PortNotSupported
/var/folders/At/AtJ1kM1UFOeJFbUSaF5E+k+++TI/-Tmp-//ccQGdSXP.s:4955   .progmem.data:0000015e gTextMsg_MustBeLetter
/var/folders/At/AtJ1kM1UFOeJFbUSaF5E+k+++TI/-Tmp-//ccQGdSXP.s:4855   .progmem.data:00000038 gTextMsg_HUH
/var/folders/At/AtJ1kM1UFOeJFbUSaF5E+k+++TI/-Tmp-//ccQGdSXP.s:5045   .progmem.data:00000259 gTextMsg_END
/var/folders/At/AtJ1kM1UFOeJFbUSaF5E+k+++TI/-Tmp-//ccQGdSXP.s:5050   .progmem.data:0000025b gAvrInt_RESET
/var/folders/At/AtJ1kM1UFOeJFbUSaF5E+k+++TI/-Tmp-//ccQGdSXP.s:5055   .progmem.data:00000261 gAvrInt_INT0
/var/folders/At/AtJ1kM1UFOeJFbUSaF5E+k+++TI/-Tmp-//ccQGdSXP.s:5060   .progmem.data:00000266 gAvrInt_INT1
/var/folders/At/AtJ1kM1UFOeJFbUSaF5E+k+++TI/-Tmp-//ccQGdSXP.s:5065   .progmem.data:0000026b gAvrInt_INT2
/var/folders/At/AtJ1kM1UFOeJFbUSaF5E+k+++TI/-Tmp-//ccQGdSXP.s:5070   .progmem.data:00000270 gAvrInt_INT3
/var/folders/At/AtJ1kM1UFOeJFbUSaF5E+k+++TI/-Tmp-//ccQGdSXP.s:5075   .progmem.data:00000275 gAvrInt_INT4
/var/folders/At/AtJ1kM1UFOeJFbUSaF5E+k+++TI/-Tmp-//ccQGdSXP.s:5080   .progmem.data:0000027a gAvrInt_INT5
/var/folders/At/AtJ1kM1UFOeJFbUSaF5E+k+++TI/-Tmp-//ccQGdSXP.s:5085   .progmem.data:0000027f gAvrInt_INT6
/var/folders/At/AtJ1kM1UFOeJFbUSaF5E+k+++TI/-Tmp-//ccQGdSXP.s:5090   .progmem.data:00000284 gAvrInt_INT7
/var/folders/At/AtJ1kM1UFOeJFbUSaF5E+k+++TI/-Tmp-//ccQGdSXP.s:5095   .progmem.data:00000289 gAvrInt_PCINT0
/var/folders/At/AtJ1kM1UFOeJFbUSaF5E+k+++TI/-Tmp-//ccQGdSXP.s:5100   .progmem.data:00000290 gAvrInt_PCINT1
/var/folders/At/AtJ1kM1UFOeJFbUSaF5E+k+++TI/-Tmp-//ccQGdSXP.s:5105   .progmem.data:00000297 gAvrInt_PCINT2
/var/folders/At/AtJ1kM1UFOeJFbUSaF5E+k+++TI/-Tmp-//ccQGdSXP.s:5110   .progmem.data:0000029e gAvrInt_WDT
/var/folders/At/AtJ1kM1UFOeJFbUSaF5E+k+++TI/-Tmp-//ccQGdSXP.s:5115   .progmem.data:000002a2 gAvrInt_TIMER0_COMPA
/var/folders/At/AtJ1kM1UFOeJFbUSaF5E+k+++TI/-Tmp-//ccQGdSXP.s:5120   .progmem.data:000002af gAvrInt_TIMER0_COMPB
/var/folders/At/AtJ1kM1UFOeJFbUSaF5E+k+++TI/-Tmp-//ccQGdSXP.s:5125   .progmem.data:000002bc gAvrInt_TIMER0_OVF
/var/folders/At/AtJ1kM1UFOeJFbUSaF5E+k+++TI/-Tmp-//ccQGdSXP.s:5130   .progmem.data:000002c7 gAvrInt_TIMER1_CAPT
/var/folders/At/AtJ1kM1UFOeJFbUSaF5E+k+++TI/-Tmp-//ccQGdSXP.s:5135   .progmem.data:000002d3 gAvrInt_TIMER1_COMPA
/var/folders/At/AtJ1kM1UFOeJFbUSaF5E+k+++TI/-Tmp-//ccQGdSXP.s:5140   .progmem.data:000002e0 gAvrInt_TIMER1_COMPB
/var/folders/At/AtJ1kM1UFOeJFbUSaF5E+k+++TI/-Tmp-//ccQGdSXP.s:5145   .progmem.data:000002ed gAvrInt_TIMER1_COMPC
/var/folders/At/AtJ1kM1UFOeJFbUSaF5E+k+++TI/-Tmp-//ccQGdSXP.s:5150   .progmem.data:000002fa gAvrInt_TIMER1_OVF
/var/folders/At/AtJ1kM1UFOeJFbUSaF5E+k+++TI/-Tmp-//ccQGdSXP.s:5155   .progmem.data:00000305 gAvrInt_TIMER2_COMPA
/var/folders/At/AtJ1kM1UFOeJFbUSaF5E+k+++TI/-Tmp-//ccQGdSXP.s:5160   .progmem.data:00000312 gAvrInt_TIMER2_COMPB
/var/folders/At/AtJ1kM1UFOeJFbUSaF5E+k+++TI/-Tmp-//ccQGdSXP.s:5165   .progmem.data:0000031f gAvrInt_TIMER2_OVF
/var/folders/At/AtJ1kM1UFOeJFbUSaF5E+k+++TI/-Tmp-//ccQGdSXP.s:5170   .progmem.data:0000032a gAvrInt_TIMER3_CAPT
/var/folders/At/AtJ1kM1UFOeJFbUSaF5E+k+++TI/-Tmp-//ccQGdSXP.s:5175   .progmem.data:00000336 gAvrInt_TIMER3_COMPA
/var/folders/At/AtJ1kM1UFOeJFbUSaF5E+k+++TI/-Tmp-//ccQGdSXP.s:5180   .progmem.data:00000343 gAvrInt_TIMER3_COMPB
/var/folders/At/AtJ1kM1UFOeJFbUSaF5E+k+++TI/-Tmp-//ccQGdSXP.s:5185   .progmem.data:00000350 gAvrInt_TIMER3_COMPC
/var/folders/At/AtJ1kM1UFOeJFbUSaF5E+k+++TI/-Tmp-//ccQGdSXP.s:5190   .progmem.data:0000035d gAvrInt_TIMER3_OVF
/var/folders/At/AtJ1kM1UFOeJFbUSaF5E+k+++TI/-Tmp-//ccQGdSXP.s:5195   .progmem.data:00000368 gAvrInt_TIMER4_CAPT
/var/folders/At/AtJ1kM1UFOeJFbUSaF5E+k+++TI/-Tmp-//ccQGdSXP.s:5200   .progmem.data:00000374 gAvrInt_TIMER4_COMPA
/var/folders/At/AtJ1kM1UFOeJFbUSaF5E+k+++TI/-Tmp-//ccQGdSXP.s:5205   .progmem.data:00000381 gAvrInt_TIMER4_COMPB
/var/folders/At/AtJ1kM1UFOeJFbUSaF5E+k+++TI/-Tmp-//ccQGdSXP.s:5210   .progmem.data:0000038e gAvrInt_TIMER4_COMPC
/var/folders/At/AtJ1kM1UFOeJFbUSaF5E+k+++TI/-Tmp-//ccQGdSXP.s:5215   .progmem.data:0000039b gAvrInt_TIMER4_OVF
/var/folders/At/AtJ1kM1UFOeJFbUSaF5E+k+++TI/-Tmp-//ccQGdSXP.s:5220   .progmem.data:000003a6 gAvrInt_TIMER5_CAPT
/var/folders/At/AtJ1kM1UFOeJFbUSaF5E+k+++TI/-Tmp-//ccQGdSXP.s:5225   .progmem.data:000003b2 gAvrInt_TIMER5_COMPA
/var/folders/At/AtJ1kM1UFOeJFbUSaF5E+k+++TI/-Tmp-//ccQGdSXP.s:5230   .progmem.data:000003bf gAvrInt_TIMER5_COMPB
/var/folders/At/AtJ1kM1UFOeJFbUSaF5E+k+++TI/-Tmp-//ccQGdSXP.s:5235   .progmem.data:000003cc gAvrInt_TIMER5_COMPC
/var/folders/At/AtJ1kM1UFOeJFbUSaF5E+k+++TI/-Tmp-//ccQGdSXP.s:5240   .progmem.data:000003d9 gAvrInt_TIMER5_OVF
/var/folders/At/AtJ1kM1UFOeJFbUSaF5E+k+++TI/-Tmp-//ccQGdSXP.s:5245   .progmem.data:000003e4 gAvrInt_USART0_RX
/var/folders/At/AtJ1kM1UFOeJFbUSaF5E+k+++TI/-Tmp-//ccQGdSXP.s:5250   .progmem.data:000003ee gAvrInt_USART0_UDRE
/var/folders/At/AtJ1kM1UFOeJFbUSaF5E+k+++TI/-Tmp-//ccQGdSXP.s:5255   .progmem.data:000003fa gAvrInt_USART0_TX
/var/folders/At/AtJ1kM1UFOeJFbUSaF5E+k+++TI/-Tmp-//ccQGdSXP.s:5260   .progmem.data:00000404 gAvrInt_USART1_RX
/var/folders/At/AtJ1kM1UFOeJFbUSaF5E+k+++TI/-Tmp-//ccQGdSXP.s:5265   .progmem.data:0000040e gAvrInt_USART1_UDRE
/var/folders/At/AtJ1kM1UFOeJFbUSaF5E+k+++TI/-Tmp-//ccQGdSXP.s:5270   .progmem.data:0000041a gAvrInt_USART1_TX
/var/folders/At/AtJ1kM1UFOeJFbUSaF5E+k+++TI/-Tmp-//ccQGdSXP.s:5275   .progmem.data:00000424 gAvrInt_USART2_RX
/var/folders/At/AtJ1kM1UFOeJFbUSaF5E+k+++TI/-Tmp-//ccQGdSXP.s:5280   .progmem.data:0000042e gAvrInt_USART2_UDRE
/var/folders/At/AtJ1kM1UFOeJFbUSaF5E+k+++TI/-Tmp-//ccQGdSXP.s:5285   .progmem.data:0000043a gAvrInt_USART2_TX
/var/folders/At/AtJ1kM1UFOeJFbUSaF5E+k+++TI/-Tmp-//ccQGdSXP.s:5290   .progmem.data:00000444 gAvrInt_USART3_RX
/var/folders/At/AtJ1kM1UFOeJFbUSaF5E+k+++TI/-Tmp-//ccQGdSXP.s:5295   .progmem.data:0000044e gAvrInt_USART3_UDRE
/var/folders/At/AtJ1kM1UFOeJFbUSaF5E+k+++TI/-Tmp-//ccQGdSXP.s:5300   .progmem.data:0000045a gAvrInt_USART3_TX
/var/folders/At/AtJ1kM1UFOeJFbUSaF5E+k+++TI/-Tmp-//ccQGdSXP.s:5305   .progmem.data:00000464 gAvrInt_SPI_STC
/var/folders/At/AtJ1kM1UFOeJFbUSaF5E+k+++TI/-Tmp-//ccQGdSXP.s:5310   .progmem.data:0000046c gAvrInt_ADC
/var/folders/At/AtJ1kM1UFOeJFbUSaF5E+k+++TI/-Tmp-//ccQGdSXP.s:5315   .progmem.data:00000470 gAvrInt_ANALOG_COMP
/var/folders/At/AtJ1kM1UFOeJFbUSaF5E+k+++TI/-Tmp-//ccQGdSXP.s:5320   .progmem.data:0000047c gAvrInt_EE_READY
/var/folders/At/AtJ1kM1UFOeJFbUSaF5E+k+++TI/-Tmp-//ccQGdSXP.s:5325   .progmem.data:00000485 gAvrInt_TWI
/var/folders/At/AtJ1kM1UFOeJFbUSaF5E+k+++TI/-Tmp-//ccQGdSXP.s:5330   .progmem.data:00000489 gAvrInt_SPM_READY
/var/folders/At/AtJ1kM1UFOeJFbUSaF5E+k+++TI/-Tmp-//ccQGdSXP.s:5335   .progmem.data:00000493 gAvrInt_END

UNDEFINED SYMBOLS
__divmodhi4
__eerd_byte_m2560
__udivmodsi4
__eewr_byte_m2560
__do_clear_bss
